(dp0
S'METTS MARK'
p1
(dp2
S'to_messages'
p3
I807
sS'deferral_payments'
p4
S'NaN'
p5
sS'expenses'
p6
I94299
sS'restricted_stock_scaled'
p7
F0.03963379812642099
sS'poi'
p8
I00
sS'deferred_income'
p9
g5
sS'email_address'
p10
S'mark.metts@enron.com'
p11
sS'long_term_incentive'
p12
g5
sS'deferred_income_scaled'
p13
S'NaN'
p14
sS'combined_scaled'
p15
F0.013392123051602452
sS'expenses_scaled'
p16
F0.41221263928170204
sS'restricted_stock_deferred'
p17
g5
sS'deferral_payments_scaled'
p18
g14
sS'shared_receipt_with_poi'
p19
I702
sS'loan_advances'
p20
g5
sS'from_messages'
p21
I29
sS'other'
p22
I1740
sS'combined'
p23
F2612677.0
sS'to_poi_ratio'
p24
F0.034482758620689655
sS'restricted_stock_deferred_scaled'
p25
g14
sS'director_fees'
p26
g5
sS'other_scaled'
p27
F0.00016795806145122137
sS'email_subject_scaled'
p28
cnumpy.core.multiarray
scalar
p29
(cnumpy
dtype
p30
(S'f8'
p31
I0
I1
tp32
Rp33
(I3
S'<'
p34
NNNI-1
I-1
I0
tp35
bS'\xa2\xd4\x8c\xc3\x8b\xe9g?'
p36
tp37
Rp38
sS'from_messages_scaled'
p39
F0.0020183741648106906
sS'bonus'
p40
I600000
sS'total_stock_value'
p41
I585062
sS'from_poi_to_this_person'
p42
I38
sS'from_this_person_to_poi'
p43
I1
sS'email_body_scaled'
p44
g29
(g33
S'\xae\xf7\xdc\x98\x94~\xcb\xbf'
p45
tp46
Rp47
sS'restricted_stock'
p48
I585062
sS'salary'
p49
I365788
sS'total_payments'
p50
I1061827
sS'long_term_incentive_scaled'
p51
g14
sS'email_body'
p52
g29
(g33
S'\x92\x00mp\x8c\x96h\xbf'
p53
tp54
Rp55
sS'exercised_stock_options'
p56
g5
sS'email_subject'
p57
g29
(g33
S'\x88\xf7\x9eH\x89c\xf1>'
p58
tp59
Rp60
sS'to_poi_ratio_scaled'
p61
F0.034482758620689655
ssS'BAXTER JOHN C'
p62
(dp63
g3
g5
sg4
I1295738
sg6
I11200
sg7
F0.26709089078800846
sg8
I00
sg9
I-1386055
sg10
g5
sg12
I1586055
sg13
F1663.9315726290515
sg15
F0.12509700622340672
sg16
F0.04895896626639797
sg17
g5
sg18
F0.20160884021913836
sg19
g5
sg20
g5
sg21
g5
sg22
I2660303
sg23
F24405247.0
sg24
g14
sg25
g14
sg26
g5
sg27
F0.25679272112233825
sg28
g14
sg39
g14
sg40
I1200000
sg41
I10623258
sg42
g5
sg43
g5
sg44
g14
sg48
I3942714
sg49
I267102
sg50
I5634343
sg51
F0.3082451353957703
sg52
g14
sg56
I6680544
sg57
g14
sg61
g14
ssS'ELLIOTT STEVEN'
p64
(dp65
g3
g5
sg4
g5
sg6
I78552
sg7
F0.12115079746267603
sg8
I00
sg9
I-400729
sg10
S'steven.elliott@enron.com'
p66
sg12
g5
sg13
F481.06722689075633
sg15
F0.06305658249735241
sg16
F0.34337720697840124
sg17
g5
sg18
g14
sg19
g5
sg20
g5
sg21
g5
sg22
I12961
sg23
F12301745.0
sg24
g14
sg25
g14
sg26
g5
sg27
F0.0012510945025685518
sg28
g14
sg39
g14
sg40
I350000
sg41
I6678735
sg42
g5
sg43
g5
sg44
g14
sg48
I1788391
sg49
I170941
sg50
I211725
sg51
g14
sg52
g14
sg56
I4890344
sg57
g14
sg61
g14
ssS'CORDES WILLIAM R'
p67
(dp68
g3
I764
sg4
g5
sg6
g5
sg7
F0.026171454305989543
sg8
I00
sg9
g5
sg10
S'bill.cordes@enron.com'
p69
sg12
g5
sg13
g14
sg15
F0.008662822339506548
sg16
g14
sg17
g5
sg18
g14
sg19
I58
sg20
g5
sg21
I12
sg22
g5
sg23
F1690035.0
sg24
F0.0
sg25
g14
sg26
g5
sg27
g14
sg28
g29
(g33
S'n\x1a6TT\xb0\xf5\xbf'
p70
tp71
Rp72
sg39
F0.0008351893095768374
sg40
g5
sg41
I1038185
sg42
I10
sg43
I0
sg44
g29
(g33
S'\xb2\x9c\n\xde\xfa\x15\xcd\xbf'
p73
tp74
Rp75
sg48
I386335
sg49
g5
sg50
g5
sg51
g14
sg52
g29
(g33
S'\xd4\xc2\x94\x01\xe2\x02j\xbf'
p76
tp77
Rp78
sg56
I651850
sg57
g29
(g33
S'F\xdd\xd0\xb16\x8b\x7f\xbf'
p79
tp80
Rp81
sg61
F0.0
ssS'HANNON KEVIN P'
p82
(dp83
g3
I1045
sg4
g5
sg6
I34039
sg7
F0.05778903152985017
sg8
I01
sg9
I-3117011
sg10
S'kevin.hannon@enron.com'
p84
sg12
I1617011
sg13
F3741.9099639855945
sg15
F0.0715618421260902
sg16
F0.14879591542338577
sg17
g5
sg18
g14
sg19
I1035
sg20
g5
sg21
I32
sg22
I11350
sg23
F13961041.0
sg24
F0.65625
sg25
g14
sg26
g5
sg27
F0.0010955885042938864
sg28
g29
(g33
S'\xa5|\xe1\xa0\x1bK\xd0?'
p85
tp86
Rp87
sg39
F0.0022271714922048997
sg40
I1500000
sg41
I6391065
sg42
I32
sg43
I21
sg44
g29
(g33
S'\xfcf\x95`\xb7\x00\xe8?'
p88
tp89
Rp90
sg48
I853064
sg49
I243293
sg50
I288682
sg51
F0.31426134316366705
sg52
g29
(g33
S'?\x12y8,w\x85?'
p91
tp92
Rp93
sg56
I5538001
sg57
g29
(g33
S'\xe6\x05\x04yc\xb2W?'
p94
tp95
Rp96
sg61
F0.65625
ssS'MORDAUNT KRISTINA M'
p97
(dp98
g3
g5
sg4
g5
sg6
I35018
sg7
F0.014125072637327396
sg8
I00
sg9
g5
sg10
S'kristina.mordaunt@enron.com'
p99
sg12
g5
sg13
g14
sg15
F0.007325443541670614
sg16
F0.1530754536354218
sg17
g5
sg18
g14
sg19
g5
sg20
g5
sg21
g5
sg22
I1411
sg23
F1429125.0
sg24
g14
sg25
g14
sg26
g5
sg27
F0.0001362004739699272
sg28
g14
sg39
g14
sg40
I325000
sg41
I208510
sg42
g5
sg43
g5
sg44
g14
sg48
I208510
sg49
I267093
sg50
I628522
sg51
g14
sg52
g14
sg56
g5
sg57
g14
sg61
g14
ssS'MEYER ROCKFORD G'
p100
(dp101
g3
I232
sg4
I1848227
sg6
g5
sg7
F0.03132323431172601
sg8
I00
sg9
g5
sg10
S'rockford.meyer@enron.com'
p102
sg12
g5
sg13
g14
sg15
F0.016902861571334946
sg16
g14
sg17
g5
sg18
F0.28757272066706185
sg19
I22
sg20
g5
sg21
I28
sg22
g5
sg23
F3297589.0
sg24
F0.0
sg25
g14
sg26
g5
sg27
g14
sg28
g29
(g33
S'\xbbu\xa50\xf2\x00\x8d\xbf'
p103
tp104
Rp105
sg39
F0.0019487750556792874
sg40
g5
sg41
I955873
sg42
I0
sg43
I0
sg44
g29
(g33
S'\x81\xbcWl\xd0!\xcf?'
p106
tp107
Rp108
sg48
I462384
sg49
g5
sg50
I1848227
sg51
g14
sg52
g29
(g33
S'.\xab\x1b\x00X\xd7k?'
p109
tp110
Rp111
sg56
I493489
sg57
g29
(g33
S'@\xb7\xf5\x95[\x17\x15\xbf'
p112
tp113
Rp114
sg61
F0.0
ssS'MCMAHON JEFFREY'
p115
(dp116
g3
I2355
sg4
g5
sg6
I137108
sg7
F0.03785480175920189
sg8
I00
sg9
g5
sg10
S'jeffrey.mcmahon@enron.com'
p117
sg12
I694862
sg13
g14
sg15
F0.05042338898010122
sg16
F0.5993451738261869
sg17
g5
sg18
g14
sg19
I2228
sg20
g5
sg21
I48
sg22
I297353
sg23
F9837128.0
sg24
F0.5416666666666666
sg25
g14
sg26
g5
sg27
F0.028702777842933923
sg28
g29
(g33
S"Z\xadI+'(\xf0\xbf"
p118
tp119
Rp120
sg39
F0.0033407572383073497
sg40
I2600000
sg41
I1662855
sg42
I58
sg43
I26
sg44
g29
(g33
S'\xa0i\x8d\xb11\x07\xc8?'
p121
tp122
Rp123
sg48
I558801
sg49
I370448
sg50
I4099771
sg51
F0.13504439081329195
sg52
g29
(g33
S'\x7f^z=\xf7|e?'
p124
tp125
Rp126
sg56
I1104054
sg57
g29
(g33
S'A\x97>\xfc\x8c\x7fw\xbf'
p127
tp128
Rp129
sg61
F0.5416666666666666
ssS'HAEDICKE MARK E'
p130
(dp131
g3
I4009
sg4
I2157527
sg6
I76169
sg7
F0.03550872955366775
sg8
I00
sg9
I-934484
sg10
S'mark.haedicke@enron.com'
p132
sg12
I983346
sg13
F1121.829531812725
sg15
F0.03483014986843855
sg16
F0.3329603126379703
sg17
I-329825
sg18
F0.33569789279273815
sg19
I1847
sg20
g5
sg21
I1941
sg22
I52382
sg23
F6795034.0
sg24
F0.03142709943328181
sg25
F-0.021339208826956533
sg26
g5
sg27
F0.005056309870653953
sg28
g29
(g33
S',\x1d\x98\xa3=\x99\xc5\xbf'
p133
tp134
Rp135
sg39
F0.13509187082405344
sg40
I1150000
sg41
I803094
sg42
I180
sg43
I61
sg44
g29
(g33
S'\xa2a\xf2\xebJ*\xe1\xbf'
p136
tp137
Rp138
sg48
I524169
sg49
I374125
sg50
I3859065
sg51
F0.19111040973414486
sg52
g29
(g33
S'\xf25\xab\x85\x90\xb3~\xbf'
p139
tp140
Rp141
sg56
I608750
sg57
g29
(g33
S'\xa2q\x9aI\xa2iO\xbf'
p142
tp143
Rp144
sg61
F0.03142709943328181
ssS'PIPER GREGORY F'
p145
(dp146
g3
I1238
sg4
I1130036
sg6
I43057
sg7
F0.02774437676326308
sg8
I00
sg9
I-33333
sg10
S'greg.piper@enron.com'
p147
sg12
g5
sg13
F40.015606242497
sg15
F0.020991787937516777
sg16
F0.1882166259403837
sg17
I-409554
sg18
F0.17582663112903552
sg19
I742
sg20
g5
sg21
I222
sg22
I778
sg23
F4095300.0
sg24
F0.21621621621621623
sg25
F-0.02649756183404944
sg26
g5
sg27
F7.509848954543116e-05
sg28
g29
(g33
S'l\xbf\xf0\xc5\xdd\n\xcc\xbf'
p148
tp149
Rp150
sg39
F0.015451002227171492
sg40
I400000
sg41
I880290
sg42
I61
sg43
I48
sg44
g29
(g33
S'\xf2\xfc\x19\xbco\xe8\xcb\xbf'
p151
tp152
Rp153
sg48
I409554
sg49
I197091
sg50
I1737629
sg51
g14
sg52
g29
(g33
S'\xd2\x88\x8a\xfd6\xf5h\xbf'
p154
tp155
Rp156
sg56
I880290
sg57
g29
(g33
S'^\x95H idT\xbf'
p157
tp158
Rp159
sg61
F0.21621621621621623
ssS'HUMPHREY GENE E'
p160
(dp161
g3
I128
sg4
I2964506
sg6
I4994
sg7
g14
sg8
I00
sg9
g5
sg10
S'gene.humphrey@enron.com'
p162
sg12
g5
sg13
g14
sg15
F0.039963406535844154
sg16
F0.021830453351284956
sg17
g5
sg18
F0.4612588474542515
sg19
I119
sg20
g5
sg21
I17
sg22
g5
sg23
F7796484.0
sg24
F1.0
sg25
g14
sg26
g5
sg27
g14
sg28
g29
(g33
S'PA\x15+b<\xcb\xbf'
p163
tp164
Rp165
sg39
F0.001183184855233853
sg40
g5
sg41
I2282768
sg42
I10
sg43
I17
sg44
g29
(g33
S'\xea<v\x88\xd7\xdb\xda?'
p166
tp167
Rp168
sg48
g5
sg49
I130724
sg50
I3100224
sg51
g14
sg52
g29
(g33
S'\xba\xd9\xc7D\x03\x05x?'
p169
tp170
Rp171
sg56
I2282768
sg57
g29
(g33
S'\xcc(\xed\x11B\xceS\xbf'
p172
tp173
Rp174
sg61
F1.0
ssS'NOLES JAMES L'
p175
(dp176
g3
g5
sg4
I774401
sg6
g5
sg7
F0.03138264483737436
sg8
I00
sg9
g5
sg10
g5
sg12
g5
sg13
g14
sg15
F0.005859360423437368
sg16
g14
sg17
I-94556
sg18
F0.12049201881440612
sg19
g5
sg20
g5
sg21
g5
sg22
g5
sg23
F1143106.0
sg24
g14
sg25
F-0.006117638838298195
sg26
g5
sg27
g14
sg28
g14
sg39
g14
sg40
g5
sg41
I368705
sg42
g5
sg43
g5
sg44
g14
sg48
I463261
sg49
g5
sg50
I774401
sg51
g14
sg52
g14
sg56
g5
sg57
g14
sg61
g14
ssS'BLACHMAN JEREMY M'
p177
(dp178
g3
I2475
sg4
g5
sg6
I84208
sg7
F0.012806186065095239
sg8
I00
sg9
g5
sg10
S'jeremy.blachman@enron.com'
p179
sg12
I831809
sg13
g14
sg15
F0.024773354505857832
sg16
F0.3681014849429322
sg17
g5
sg18
g14
sg19
I2326
sg20
g5
sg21
I14
sg22
I272
sg23
F4833048.0
sg24
F0.14285714285714285
sg25
g14
sg26
g5
sg27
F2.62555130544438e-05
sg28
g29
(g33
S'\xb0#KO4`\xd0\xbf'
p180
tp181
Rp182
sg39
F0.0009743875278396437
sg40
I850000
sg41
I954354
sg42
I25
sg43
I2
sg44
g29
(g33
S'\xf0\xc2\xb3v\x14\xfc\xc7?'
p183
tp184
Rp185
sg48
I189041
sg49
I248546
sg50
I2014835
sg51
F0.16165963842894496
sg52
g29
(g33
S'\x86\xf2\xd9\xc5\x06se?'
p186
tp187
Rp188
sg56
I765313
sg57
g29
(g33
S'\x816\xc6!\x12\xd1W\xbf'
p189
tp190
Rp191
sg61
F0.14285714285714285
ssS'SUNDE MARTIN'
p192
(dp193
g3
I2647
sg4
g5
sg6
g5
sg7
F0.047346869539498654
sg8
I00
sg9
g5
sg10
S'marty.sunde@enron.com'
p194
sg12
I476451
sg13
g14
sg15
F0.01641014684379219
sg16
g14
sg17
g5
sg18
g14
sg19
I2565
sg20
g5
sg21
I38
sg22
I111122
sg23
F3201465.0
sg24
F0.34210526315789475
sg25
g14
sg26
g5
sg27
F0.010726342358955528
sg28
g29
(g33
S'i\xc3\x94fa\xa9\xd1\xbf'
p195
tp196
Rp197
sg39
F0.0026447661469933183
sg40
I700000
sg41
I698920
sg42
I37
sg43
I13
sg44
g29
(g33
S'{Zmi71\xc2?'
p198
tp199
Rp200
sg48
I698920
sg49
I257486
sg50
I1545059
sg51
F0.09259685383196053
sg52
g29
(g33
S' \x85o\xba\xe9D`?'
p201
tp202
Rp203
sg56
g5
sg57
g29
(g33
S'\xe4\x1f\xe0\xaa\xd1\xafY\xbf'
p204
tp205
Rp206
sg61
F0.34210526315789475
ssS'GIBBS DANA R'
p207
(dp208
g3
I169
sg4
I504610
sg6
g5
sg7
g14
sg8
I00
sg9
g5
sg10
S'dana.gibbs@enron.com'
p209
sg12
I461912
sg13
g14
sg15
F0.027695197332340646
sg16
g14
sg17
g5
sg18
F0.07851420338292109
sg19
I23
sg20
g5
sg21
I12
sg22
g5
sg23
F5403072.0
sg24
F0.0
sg25
g14
sg26
g5
sg27
g14
sg28
g29
(g33
S'\xb5z\x7fIg\x92\x86?'
p210
tp211
Rp212
sg39
F0.0008351893095768374
sg40
g5
sg41
I2218275
sg42
I0
sg43
I0
sg44
g29
(g33
S'\xa1{(l_\x19\x95\xbf'
p213
tp214
Rp215
sg48
g5
sg49
g5
sg50
I966522
sg51
F0.08977124184276779
sg52
g29
(g33
S'\x04~}\x01h\xde2\xbf'
p216
tp217
Rp218
sg56
I2218275
sg57
g29
(g33
S'\xb0\xa4\x93\x86\x01j\x10?'
p219
tp220
Rp221
sg61
F0.0
ssS'LOWRY CHARLES P'
p222
(dp223
g3
g5
sg4
g5
sg6
g5
sg7
F0.010411135740925127
sg8
I00
sg9
g5
sg10
g5
sg12
g5
sg13
g14
sg15
F0.0038157148093099073
sg16
g14
sg17
I-153686
sg18
g14
sg19
g5
sg20
g5
sg21
g5
sg22
g5
sg23
F744410.0
sg24
g14
sg25
F-0.009943265816052881
sg26
g5
sg27
g14
sg28
g14
sg39
g14
sg40
g5
sg41
I372205
sg42
g5
sg43
g5
sg44
g14
sg48
I153686
sg49
g5
sg50
g5
sg51
g14
sg52
g14
sg56
I372205
sg57
g14
sg61
g14
ssS'COLWELL WESLEY'
p224
(dp225
g3
I1758
sg4
I27610
sg6
I16514
sg7
F0.04730093985148317
sg8
I01
sg9
I-144062
sg10
S'wes.colwell@enron.com'
p226
sg12
g5
sg13
F172.9435774309724
sg15
F0.018848311770836127
sg16
F0.0721882472252943
sg17
g5
sg18
F0.004295945691529005
sg19
I1132
sg20
g5
sg21
I40
sg22
I101740
sg23
F3677128.0
sg24
F0.275
sg25
g14
sg26
g5
sg27
F0.009820720213820265
sg28
g29
(g33
S'\x1aK\x13\xa2 \x97\xac?'
p227
tp228
Rp229
sg39
F0.0027839643652561247
sg40
I1200000
sg41
I698242
sg42
I240
sg43
I11
sg44
g29
(g33
S'\xc9\xdab\xc4\x00\x19\xdc?'
p230
tp231
Rp232
sg48
I698242
sg49
I288542
sg50
I1490344
sg51
g14
sg52
g29
(g33
S'A\x80\x89\xc1\xa5 y?'
p233
tp234
Rp235
sg56
g5
sg57
g29
(g33
S'tz6Jh\xca4?'
p236
tp237
Rp238
sg61
F0.275
ssS'MULLER MARK S'
p239
(dp240
g3
I136
sg4
I842924
sg6
g5
sg7
F0.02442321321658612
sg8
I00
sg9
I-719000
sg10
S's..muller@enron.com'
p241
sg12
I1725545
sg13
F863.1452581032413
sg15
F0.03601861322096871
sg16
g14
sg17
g5
sg18
F0.13115377493974628
sg19
I114
sg20
g5
sg21
I16
sg22
I947
sg23
F7026892.0
sg24
F0.0
sg25
g14
sg26
g5
sg27
F9.141165758293484e-05
sg28
g29
(g33
S'\xb0b\xac\xd5u\x83\xeb\xbf'
p242
tp243
Rp244
sg39
F0.0011135857461024498
sg40
I1100000
sg41
I1416848
sg42
I12
sg43
I0
sg44
g29
(g33
S'\x89IC\x95\xb8\xd4\xe6\xbf'
p245
tp246
Rp247
sg48
I360528
sg49
I251654
sg50
I3202070
sg51
F0.3353546075996699
sg52
g29
(g33
S'd\x18\xad\xa5\xe3j\x84\xbf'
p248
tp249
Rp250
sg56
I1056320
sg57
g29
(g33
S'\x9d\x13\xdf\xcd\xf1\x01t\xbf'
p251
tp252
Rp253
sg61
F0.0
ssS'JACKSON CHARLENE R'
p254
(dp255
g3
I258
sg4
g5
sg6
I10181
sg7
F0.036626690676557855
sg8
I00
sg9
g5
sg10
S'charlene.jackson@enron.com'
p256
sg12
g5
sg13
g14
sg15
F0.0102543651314044
sg16
F0.044504574603410514
sg17
g5
sg18
g14
sg19
I117
sg20
g5
sg21
I56
sg22
I2435
sg23
F2000530.0
sg24
F0.3392857142857143
sg25
g14
sg26
g5
sg27
F0.00023504475841018622
sg28
g29
(g33
S'ZK\x86=\xe8%\xb1?'
p257
tp258
Rp259
sg39
F0.0038975501113585748
sg40
I250000
sg41
I725735
sg42
I25
sg43
I19
sg44
g29
(g33
S'q0p\xfcL\x9a\x9f?'
p260
tp261
Rp262
sg48
I540672
sg49
I288558
sg50
I551174
sg51
g14
sg52
g29
(g33
S'@\xb2\x86\x0e\x18C<?'
p263
tp264
Rp265
sg56
I185063
sg57
g29
(g33
S'HF\xc4C\x9b\xf08?'
p266
tp267
Rp268
sg61
F0.3392857142857143
ssS'WESTFAHL RICHARD K'
p269
(dp270
g3
g5
sg4
g5
sg6
I51870
sg7
F0.02607627552772737
sg8
I00
sg9
I-10800
sg10
S'dick.westfahl@enron.com'
p271
sg12
I256191
sg13
F12.965186074429772
sg15
F0.006206394100758614
sg16
F0.22674121252125562
sg17
g5
sg18
g14
sg19
g5
sg20
g5
sg21
g5
sg22
I401130
sg23
F1210809.0
sg24
g14
sg25
g14
sg26
g5
sg27
F0.038720124821797944
sg28
g14
sg39
g14
sg40
g5
sg41
I384930
sg42
g5
sg43
g5
sg44
g14
sg48
I384930
sg49
I63744
sg50
I762135
sg51
F0.04978996912602513
sg52
g14
sg56
g5
sg57
g14
sg61
g14
ssS'WALTERS GARETH W'
p272
(dp273
g3
g5
sg4
I53625
sg6
I33785
sg7
g14
sg8
I00
sg9
g5
sg10
g5
sg12
g5
sg13
g14
sg15
F0.011010618985511632
sg16
F0.14768559600984424
sg17
g5
sg18
F0.00834371922159518
sg19
g5
sg20
g5
sg21
g5
sg22
g5
sg23
F2148068.0
sg24
g14
sg25
g14
sg26
g5
sg27
g14
sg28
g14
sg39
g14
sg40
g5
sg41
I1030329
sg42
g5
sg43
g5
sg44
g14
sg48
g5
sg49
g5
sg50
I87410
sg51
g14
sg52
g14
sg56
I1030329
sg57
g14
sg61
g14
ssS'WALLS JR ROBERT H'
p274
(dp275
g3
I671
sg4
g5
sg6
I50936
sg7
F0.10516767249070466
sg8
I00
sg9
g5
sg10
S'rob.walls@enron.com'
p276
sg12
I540751
sg13
g14
sg15
F0.06792440860905552
sg16
F0.22265838444153993
sg17
g5
sg18
g14
sg19
I215
sg20
g5
sg21
I146
sg22
I2
sg23
F13251412.0
sg24
F0.0
sg25
g14
sg26
g5
sg27
F1.9305524304738086e-07
sg28
g29
(g33
S'\x84\xbdC\xff3\t\xfb\xbf'
p277
tp278
Rp279
sg39
F0.010161469933184855
sg40
I850000
sg41
I5898997
sg42
I17
sg43
I0
sg44
g29
(g33
S'\xb1\x7f\xef?\xcb\xa9\xd4\xbf'
p280
tp281
Rp282
sg48
I1552453
sg49
I357091
sg50
I1798780
sg51
F0.10509337016080665
sg52
g29
(g33
S'>\xe3\xf0H\x9fzr\xbf'
p283
tp284
Rp285
sg56
I4346544
sg57
g29
(g33
S'\xd2\x04HH\n\xa9\x83\xbf'
p286
tp287
Rp288
sg61
F0.0
ssS'KITCHEN LOUISE'
p289
(dp290
g3
I8305
sg4
g5
sg6
I5774
sg7
F0.031575034680979025
sg8
I00
sg9
g5
sg10
S'louise.kitchen@enron.com'
p291
sg12
g5
sg13
g14
sg15
F0.03829384357345893
sg16
F0.02524009564483767
sg17
g5
sg18
g14
sg19
I3669
sg20
g5
sg21
I1728
sg22
I93925
sg23
F7470768.0
sg24
F0.11226851851851852
sg25
g14
sg26
g5
sg27
F0.009066356851612624
sg28
g29
(g33
S'P<"\xde\x88\x8d\xd1\xbf'
p292
tp293
Rp294
sg39
F0.12026726057906459
sg40
I3100000
sg41
I547143
sg42
I251
sg43
I194
sg44
g29
(g33
S'H\x8d\x91\x01K7\xe3\xbf'
p295
tp296
Rp297
sg48
I466101
sg49
I271442
sg50
I3471141
sg51
g14
sg52
g29
(g33
S'L\xca&:I/\x81\xbf'
p298
tp299
Rp300
sg56
I81042
sg57
g29
(g33
S'\n\x8c\xd2\x0cR\x87Y\xbf'
p301
tp302
Rp303
sg61
F0.11226851851851852
ssS'CHAN RONNIE'
p304
(dp305
g3
g5
sg4
g5
sg6
g5
sg7
F0.0021989346209181685
sg8
I00
sg9
I-98784
sg10
g5
sg12
g5
sg13
F118.58823529411765
sg15
F0.0
sg16
g14
sg17
I-32460
sg18
g14
sg19
g5
sg20
g5
sg21
g5
sg22
g5
sg23
I0
sg24
g14
sg25
F-0.002100115875155034
sg26
I98784
sg27
g14
sg28
g14
sg39
g14
sg40
g5
sg41
g5
sg42
g5
sg43
g5
sg44
g14
sg48
I32460
sg49
g5
sg50
g5
sg51
g14
sg52
g14
sg56
g5
sg57
g14
sg61
g14
ssS'BELFER ROBERT'
p306
(dp307
g3
g5
sg4
I-102500
sg6
g5
sg7
g14
sg8
I00
sg9
g5
sg10
g5
sg12
g5
sg13
g14
sg15
F0.000316222347921101
sg16
g14
sg17
I44093
sg18
F-0.0159483677429092
sg19
g5
sg20
g5
sg21
g5
sg22
g5
sg23
F61692.0
sg24
g14
sg25
F0.0028527544449541255
sg26
I3285
sg27
g14
sg28
g14
sg39
g14
sg40
g5
sg41
I-44093
sg42
g5
sg43
g5
sg44
g14
sg48
g5
sg49
g5
sg50
I102500
sg51
g14
sg52
g14
sg56
I3285
sg57
g14
sg61
g14
ssS'SHANKMAN JEFFREY A'
p308
(dp309
g3
I3221
sg4
g5
sg6
I178979
sg7
F0.04268730946461836
sg8
I00
sg9
g5
sg10
S'jeffrey.shankman@enron.com'
p310
sg12
I554422
sg13
g14
sg15
F0.04539811805158646
sg16
F0.782377394945861
sg17
g5
sg18
g14
sg19
I1730
sg20
g5
sg21
I2681
sg22
I1191
sg23
F8856745.0
sg24
F0.030958597538232
sg25
g14
sg26
g5
sg27
F0.00011496439723471531
sg28
g29
(g33
S'_\xccF\x05/\x8f\x96?'
p311
tp312
Rp313
sg39
F0.18659521158129175
sg40
I2000000
sg41
I2072035
sg42
I94
sg43
I83
sg44
g29
(g33
S'\x187\xfd%\x8e\x92\xde\xbf'
p314
tp315
Rp316
sg48
I630137
sg49
I304110
sg50
I3038702
sg51
F0.10775028889691327
sg52
g29
(g33
S'\x9ab4z:W{\xbf'
p317
tp318
Rp319
sg56
I1441898
sg57
g29
(g33
S'f\xb7G \xaag ?'
p320
tp321
Rp322
sg61
F0.030958597538232
ssS'WODRASKA JOHN'
p323
(dp324
g3
g5
sg4
g5
sg6
g5
sg7
g14
sg8
I00
sg9
g5
sg10
S'john.wodraska@enron.com'
p325
sg12
g5
sg13
g14
sg15
F0.0009717691335331338
sg16
g14
sg17
g5
sg18
g14
sg19
g5
sg20
g5
sg21
g5
sg22
I189583
sg23
F189583.0
sg24
g14
sg25
g14
sg26
g5
sg27
F0.018299996071325805
sg28
g14
sg39
g14
sg40
g5
sg41
g5
sg42
g5
sg43
g5
sg44
g14
sg48
g5
sg49
g5
sg50
I189583
sg51
g14
sg52
g14
sg56
g5
sg57
g14
sg61
g14
ssS'BERGSIEKER RICHARD P'
p326
(dp327
g3
I383
sg4
g5
sg6
I59175
sg7
F0.044659440847371584
sg8
I00
sg9
I-485813
sg10
S'rick.bergsieker@enron.com'
p328
sg12
I180250
sg13
F583.2088835534214
sg15
F0.008796022007746802
sg16
F0.25867382400125893
sg17
g5
sg18
g14
sg19
I233
sg20
g5
sg21
I59
sg22
I427316
sg23
F1716021.0
sg24
F0.0
sg25
g14
sg26
g5
sg27
F0.041247797119017306
sg28
g29
(g33
S' \xec\x9a\x8b\x07\x84\xbf\xbf'
p329
tp330
Rp331
sg39
F0.004106347438752784
sg40
I250000
sg41
I659249
sg42
I4
sg43
I0
sg44
g29
(g33
S'l\xf1\xb0*z\xdf\xa9?'
p332
tp333
Rp334
sg48
I659249
sg49
I187922
sg50
I618850
sg51
F0.03503105860458029
sg52
g29
(g33
S';(8/S#G?'
p335
tp336
Rp337
sg56
g5
sg57
g29
(g33
S'\x92d\xe1\xa7\x00\xebF\xbf'
p338
tp339
Rp340
sg61
F0.0
ssS'URQUHART JOHN A'
p341
(dp342
g3
g5
sg4
g5
sg6
I228656
sg7
g14
sg8
I00
sg9
I-36666
sg10
g5
sg12
g5
sg13
F44.016806722689076
sg15
F0.001172050463370409
sg16
F0.9995322670187049
sg17
g5
sg18
g14
sg19
g5
sg20
g5
sg21
g5
sg22
g5
sg23
F228656.0
sg24
g14
sg25
g14
sg26
I36666
sg27
g14
sg28
g14
sg39
g14
sg40
g5
sg41
g5
sg42
g5
sg43
g5
sg44
g14
sg48
g5
sg49
g5
sg50
I228656
sg51
g14
sg52
g14
sg56
g5
sg57
g14
sg61
g14
ssS'BIBI PHILIPPE A'
p343
(dp344
g3
I1607
sg4
g5
sg6
I38559
sg7
F0.025612372130190478
sg8
I00
sg9
g5
sg10
S'philippe.bibi@enron.com'
p345
sg12
I369721
sg13
g14
sg15
F0.033680601773403956
sg16
F0.1685543553808964
sg17
g5
sg18
g14
sg19
I1336
sg20
g5
sg21
I40
sg22
I425688
sg23
F6570768.0
sg24
F0.2
sg25
g14
sg26
g5
sg27
F0.04109065015117674
sg28
g29
(g33
S'V\x8a?e*\xa5\xc0?'
p346
tp347
Rp348
sg39
F0.0027839643652561247
sg40
I1000000
sg41
I1843816
sg42
I23
sg43
I8
sg44
g29
(g33
S'\xb3\x8a\xb2i\x8d\x06\xbe?'
p349
tp350
Rp351
sg48
I378082
sg49
I213625
sg50
I2047593
sg51
F0.07185419150260211
sg52
g29
(g33
S'[g\xd2a\x06\xdaZ?'
p352
tp353
Rp354
sg56
I1465734
sg57
g29
(g33
S'\xc6jB\xef]5H?'
p355
tp356
Rp357
sg61
F0.2
ssS'RIEKER PAULA H'
p358
(dp359
g3
I1328
sg4
I214678
sg6
I33271
sg7
F0.019215206601627156
sg8
I01
sg9
I-100000
sg10
S'paula.rieker@enron.com'
p360
sg12
g5
sg13
F120.04801920768307
sg15
F0.02871705089434971
sg16
F0.1454387291651185
sg17
g5
sg18
F0.0334025725884123
sg19
I1258
sg20
g5
sg21
I82
sg22
I1950
sg23
F5602426.0
sg24
F0.5853658536585366
sg25
g14
sg26
g5
sg27
F0.00018822886197119635
sg28
g29
(g33
S'\x0eUi\xba\xb8\x93\xda?'
p361
tp362
Rp363
sg39
F0.005707126948775056
sg40
I700000
sg41
I1918887
sg42
I35
sg43
I48
sg44
g29
(g33
S'KF\xca\xadX\xe4\xca?'
p364
tp365
Rp366
sg48
I283649
sg49
I249201
sg50
I1099100
sg51
g14
sg52
g29
(g33
S'\xd8\x0f\x04F\x9e\x0ch?'
p367
tp368
Rp369
sg56
I1635238
sg57
g29
(g33
S'\x9cBP\xcd\x9bSc?'
p370
tp371
Rp372
sg61
F0.5853658536585366
ssS'WHALEY DAVID A'
p373
(dp374
g3
g5
sg4
g5
sg6
g5
sg7
g14
sg8
I00
sg9
g5
sg10
g5
sg12
g5
sg13
g14
sg15
F0.0010120222311507247
sg16
g14
sg17
g5
sg18
g14
sg19
g5
sg20
g5
sg21
g5
sg22
g5
sg23
F197436.0
sg24
g14
sg25
g14
sg26
g5
sg27
g14
sg28
g14
sg39
g14
sg40
g5
sg41
I98718
sg42
g5
sg43
g5
sg44
g14
sg48
g5
sg49
g5
sg50
g5
sg51
g14
sg52
g14
sg56
I98718
sg57
g14
sg61
g14
ssS'BECK SALLY W'
p375
(dp376
g3
I7315
sg4
g5
sg6
I37172
sg7
F0.0085374347957626
sg8
I00
sg9
g5
sg10
S'sally.beck@enron.com'
p377
sg12
g5
sg13
g14
sg15
F0.010387098349640425
sg16
F0.16249131196915584
sg17
g5
sg18
g14
sg19
I2639
sg20
g5
sg21
I4343
sg22
I566
sg23
F2026425.0
sg24
F0.08887865530739121
sg25
g14
sg26
g5
sg27
F5.463463378240879e-05
sg28
g29
(g33
S'6h\xfd-\xa2\xe2\xd3\xbf'
p378
tp379
Rp380
sg39
F0.30226893095768376
sg40
I700000
sg41
I126027
sg42
I144
sg43
I386
sg44
g29
(g33
S'\x86.\x94Q\xc7\xc2\xe4\xbf'
p381
tp382
Rp383
sg48
I126027
sg49
I231330
sg50
I969068
sg51
g14
sg52
g29
(g33
S'\x0c\xce\x88=\xf7\x90\x82\xbf'
p384
tp385
Rp386
sg56
g5
sg57
g29
(g33
S'8\x9bI!\xbb\xeb\\\xbf'
p387
tp388
Rp389
sg61
F0.08887865530739121
ssS'HAUG DAVID L'
p390
(dp391
g3
I573
sg4
g5
sg6
I475
sg7
F0.15020627036436332
sg8
I00
sg9
g5
sg10
S'david.haug@enron.com'
p392
sg12
g5
sg13
g14
sg15
F0.011367919688750111
sg16
F0.0020763847300481284
sg17
g5
sg18
g14
sg19
I471
sg20
g5
sg21
I19
sg22
g5
sg23
F2217774.0
sg24
F0.3684210526315789
sg25
g14
sg26
g5
sg27
g14
sg28
g29
(g33
S'\xda\xbf\xdbH\x1c\xa2\xc2\xbf'
p393
tp394
Rp395
sg39
F0.0013223830734966592
sg40
g5
sg41
I2217299
sg42
I4
sg43
I7
sg44
g29
(g33
S'\xca\xe9\xe3\t\x1f\x0c\xcf?'
p396
tp397
Rp398
sg48
I2217299
sg49
g5
sg50
I475
sg51
g14
sg52
g29
(g33
S'\x01f\xb0\xa6\xf1\xc3k?'
p399
tp400
Rp401
sg56
g5
sg57
g29
(g33
S'\x12\xda{V\x91\x19K\xbf'
p402
tp403
Rp404
sg61
F0.3684210526315789
ssS'ECHOLS JOHN B'
p405
(dp406
g3
g5
sg4
g5
sg6
I21530
sg7
F0.027605436069871113
sg8
I00
sg9
g5
sg10
S'john.echols@enron.com'
p407
sg12
I2234774
sg13
g14
sg15
F0.024014219938537678
sg16
F0.09411486997460254
sg17
g5
sg18
g14
sg19
g5
sg20
g5
sg21
g5
sg22
I53775
sg23
F4684948.0
sg24
g14
sg25
g14
sg26
g5
sg27
F0.005190772847436453
sg28
g14
sg39
g14
sg40
I200000
sg41
I1008941
sg42
g5
sg43
g5
sg44
g14
sg48
I407503
sg49
I182245
sg50
I2692324
sg51
F0.43432176955335544
sg52
g14
sg56
I601438
sg57
g14
sg61
g14
ssS'MENDELSOHN JOHN'
p408
(dp409
g3
g5
sg4
g5
sg6
I148
sg7
g14
sg8
I00
sg9
I-103750
sg10
g5
sg12
g5
sg13
F124.54981992797119
sg15
F7.586219848979276e-07
sg16
F0.0006469577685202589
sg17
g5
sg18
g14
sg19
g5
sg20
g5
sg21
g5
sg22
g5
sg23
F148.0
sg24
g14
sg25
g14
sg26
I103750
sg27
g14
sg28
g14
sg39
g14
sg40
g5
sg41
g5
sg42
g5
sg43
g5
sg44
g14
sg48
g5
sg49
g5
sg50
I148
sg51
g14
sg52
g14
sg56
g5
sg57
g14
sg61
g14
ssS'HICKERSON GARY J'
p410
(dp411
g3
I1320
sg4
g5
sg6
I98849
sg7
F0.02988112339952312
sg8
I00
sg9
g5
sg10
S'gary.hickerson@enron.com'
p412
sg12
I69223
sg13
g14
sg15
F0.02273139016207528
sg16
F0.4321022193274262
sg17
g5
sg18
g14
sg19
I900
sg20
g5
sg21
I27
sg22
I1936
sg23
F4434680.0
sg24
F0.037037037037037035
sg25
g14
sg26
g5
sg27
F0.00018687747526986468
sg28
g29
(g33
S'G\xb2\x8b\x95l/\xa1?'
p413
tp414
Rp415
sg39
F0.0018791759465478842
sg40
I1700000
sg41
I441096
sg42
I40
sg43
I1
sg44
g29
(g33
S'z\xd7\xd6M\xefj\xc4\xbf'
p416
tp417
Rp418
sg48
I441096
sg49
I211788
sg50
I2081796
sg51
F0.013453286933619205
sg52
g29
(g33
S'\xb2N\x93ahBb\xbf'
p419
tp420
Rp421
sg56
g5
sg57
g29
(g33
S'S\xf8N\xa4r\xfe(?'
p422
tp423
Rp424
sg61
F0.037037037037037035
ssS'CLINE KENNETH W'
p425
(dp426
g3
g5
sg4
g5
sg6
g5
sg7
F0.04485162746226822
sg8
I00
sg9
g5
sg10
g5
sg12
g5
sg13
g14
sg15
F0.0009714359549586855
sg16
g14
sg17
I-472568
sg18
g14
sg19
g5
sg20
g5
sg21
g5
sg22
g5
sg23
F189518.0
sg24
g14
sg25
F-0.03057447809273765
sg26
g5
sg27
g14
sg28
g14
sg39
g14
sg40
g5
sg41
I189518
sg42
g5
sg43
g5
sg44
g14
sg48
I662086
sg49
g5
sg50
g5
sg51
g14
sg52
g14
sg56
g5
sg57
g14
sg61
g14
ssS'LEWIS RICHARD'
p427
(dp428
g3
I952
sg4
g5
sg6
g5
sg7
g14
sg8
I00
sg9
g5
sg10
S'richard.lewis@enron.com'
p429
sg12
g5
sg13
g14
sg15
F0.008718791214189659
sg16
g14
sg17
g5
sg18
g14
sg19
I739
sg20
g5
sg21
I26
sg22
g5
sg23
F1700954.0
sg24
F0.0
sg25
g14
sg26
g5
sg27
g14
sg28
g29
(g33
S'^\xdc\x84\xa4ly\xe6\xbf'
p430
tp431
Rp432
sg39
F0.001809576837416481
sg40
g5
sg41
I850477
sg42
I10
sg43
I0
sg44
g29
(g33
S'\xfd\x93\x1a\xaf\x98[\xe4\xbf'
p433
tp434
Rp435
sg48
g5
sg49
g5
sg50
g5
sg51
g14
sg52
g29
(g33
S'\x82\xb1\xbc\xd5\xb04\x82\xbf'
p436
tp437
Rp438
sg56
I850477
sg57
g29
(g33
S'\xee\x11\xffd\xd7Wp\xbf'
p439
tp440
Rp441
sg61
F0.0
ssS'HAYES ROBERT E'
p442
(dp443
g3
I504
sg4
I7961
sg6
g5
sg7
F0.010257494837652101
sg8
I00
sg9
g5
sg10
S'robert.hayes@enron.com'
p444
sg12
g5
sg13
g14
sg15
F0.0008169487387232892
sg16
g14
sg17
g5
sg18
F0.001238682493671221
sg19
I50
sg20
g5
sg21
I12
sg22
g5
sg23
F159379.0
sg24
F0.0
sg25
g14
sg26
g5
sg27
g14
sg28
g29
(g33
S'ZK\x86=\xe8%\xb1?'
p445
tp446
Rp447
sg39
F0.0008351893095768374
sg40
g5
sg41
I151418
sg42
I16
sg43
I0
sg44
g29
(g33
S'\x89}zi\n\xeb\xea\xbf'
p448
tp449
Rp450
sg48
I151418
sg49
g5
sg50
I7961
sg51
g14
sg52
g29
(g33
S'#w\x18\xda\x9a\x12\x88\xbf'
p451
tp452
Rp453
sg56
g5
sg57
g29
(g33
S'HF\xc4C\x9b\xf08?'
p454
tp455
Rp456
sg61
F0.0
ssS'KOPPER MICHAEL J'
p457
(dp458
g3
g5
sg4
g5
sg6
I118134
sg7
F0.06672892691042098
sg8
I01
sg9
g5
sg10
S'michael.kopper@enron.com'
p459
sg12
I602671
sg13
g14
sg15
F0.023896331107249383
sg16
F0.5164034393673802
sg17
g5
sg18
g14
sg19
g5
sg20
g5
sg21
g5
sg22
I907502
sg23
F4661949.0
sg24
g14
sg25
g14
sg26
g5
sg27
F0.08759900958799212
sg28
g14
sg39
g14
sg40
I800000
sg41
I985032
sg42
g5
sg43
g5
sg44
g14
sg48
I985032
sg49
I224305
sg50
I2652612
sg51
F0.11712734047312627
sg52
g14
sg56
g5
sg57
g14
sg61
g14
ssS'LEFF DANIEL P'
p460
(dp461
g3
I2822
sg4
g5
sg6
g5
sg7
F0.02442321321658612
sg8
I00
sg9
g5
sg10
S'dan.leff@enron.com'
p462
sg12
I1387399
sg13
g14
sg15
F0.022033365671133186
sg16
g14
sg17
g5
sg18
g14
sg19
I2672
sg20
g5
sg21
I63
sg22
I3083
sg23
F4298502.0
sg24
F0.2222222222222222
sg25
g14
sg26
g5
sg27
F0.0002975946571575376
sg28
g29
(g33
S"-\xa7\x9d'\x13\xb6\xab\xbf"
p463
tp464
Rp465
sg39
F0.004384743875278397
sg40
I1000000
sg41
I360528
sg42
I67
sg43
I14
sg44
g29
(g33
S'%\xe0tMiP\xc4?'
p466
tp467
Rp468
sg48
I360528
sg49
I273746
sg50
I2664228
sg51
F0.2696369246986746
sg52
g29
(g33
S'\x80\xf1\x83"\xb0*b?'
p469
tp470
Rp471
sg56
g5
sg57
g29
(g33
S'\x1a\x17\xe4A\xc0&4\xbf'
p472
tp473
Rp474
sg61
F0.2222222222222222
ssS'LAVORATO JOHN J'
p475
(dp476
g3
I7259
sg4
g5
sg6
I49537
sg7
F0.06829493959162139
sg8
I00
sg9
g5
sg10
S'john.lavorato@enron.com'
p477
sg12
I2035380
sg13
g14
sg15
F0.14399047137981694
sg16
F0.21654288499451396
sg17
g5
sg18
g14
sg19
I3962
sg20
g5
sg21
I2585
sg22
I1552
sg23
F28091184.0
sg24
F0.15899419729206962
sg25
g14
sg26
g5
sg27
F0.00014981086860476757
sg28
g29
(g33
S'ZK\x86=\xe8%\xb1?'
p478
tp479
Rp480
sg39
F0.17991369710467706
sg40
I8000000
sg41
I5167144
sg42
I528
sg43
I411
sg44
g29
(g33
S"\x1f\xc4'\xe8Wh\xe2\xbf"
p481
tp482
Rp483
sg48
I1008149
sg49
I339288
sg50
I10425757
sg51
F0.39557013072172337
sg52
g29
(g33
S'\xc2h\xaal6v\x80\xbf'
p484
tp485
Rp486
sg56
I4158995
sg57
g29
(g33
S'HF\xc4C\x9b\xf08?'
p487
tp488
Rp489
sg61
F0.15899419729206962
ssS'BERBERIAN DAVID'
p490
(dp491
g3
g5
sg4
g5
sg6
I11892
sg7
F0.0588834858655111
sg8
I00
sg9
g5
sg10
S'david.berberian@enron.com'
p492
sg12
g5
sg13
g14
sg15
F0.02338948448232579
sg16
F0.05198393096785756
sg17
g5
sg18
g14
sg19
g5
sg20
g5
sg21
g5
sg22
g5
sg23
F4563068.0
sg24
g14
sg25
g14
sg26
g5
sg27
g14
sg28
g14
sg39
g14
sg40
g5
sg41
I2493616
sg42
g5
sg43
g5
sg44
g14
sg48
I869220
sg49
I216582
sg50
I228474
sg51
g14
sg52
g14
sg56
I1624396
sg57
g14
sg61
g14
ssS'DETMERING TIMOTHY J'
p493
(dp494
g3
g5
sg4
I875307
sg6
I52255
sg7
F0.02134362086085784
sg8
I00
sg9
I-775241
sg10
S'timothy.detmering@enron.com'
p495
sg12
I415657
sg13
F930.6614645858343
sg15
F0.03022090108545274
sg16
F0.22842417698666306
sg17
I-315068
sg18
F0.13619236998968412
sg19
g5
sg20
g5
sg21
g5
sg22
I1105
sg23
F5895813.0
sg24
g14
sg25
F-0.020384451896283
sg26
g5
sg27
F0.00010666302178367793
sg28
g14
sg39
g14
sg40
I425000
sg41
I2027865
sg42
g5
sg43
g5
sg44
g14
sg48
I315068
sg49
I210500
sg50
I1204583
sg51
F0.08078171831569504
sg52
g14
sg56
I2027865
sg57
g14
sg61
g14
ssS'WAKEHAM JOHN'
p496
(dp497
g3
g5
sg4
g5
sg6
I103773
sg7
g14
sg8
I00
sg9
g5
sg10
g5
sg12
g5
sg13
g14
sg15
F0.0010921644928661239
sg16
F0.4536266791395462
sg17
g5
sg18
g14
sg19
g5
sg20
g5
sg21
g5
sg22
g5
sg23
F213071.0
sg24
g14
sg25
g14
sg26
I109298
sg27
g14
sg28
g14
sg39
g14
sg40
g5
sg41
g5
sg42
g5
sg43
g5
sg44
g14
sg48
g5
sg49
g5
sg50
I213071
sg51
g14
sg52
g14
sg56
g5
sg57
g14
sg61
g14
ssS'POWERS WILLIAM'
p498
(dp499
g3
I653
sg4
g5
sg6
g5
sg7
g14
sg8
I00
sg9
I-17500
sg10
S'ken.powers@enron.com'
p500
sg12
g5
sg13
F21.008403361344538
sg15
F0.0
sg16
g14
sg17
g5
sg18
g14
sg19
I12
sg20
g5
sg21
I26
sg22
g5
sg23
I0
sg24
F0.0
sg25
g14
sg26
I17500
sg27
g14
sg28
g29
(g33
S'`\xa9_]\xab\xf0\xf2\xbf'
p501
tp502
Rp503
sg39
F0.001809576837416481
sg40
g5
sg41
g5
sg42
I0
sg43
I0
sg44
g29
(g33
S'\xb1$\xcd*\x14\x98\xe0\xbf'
p504
tp505
Rp506
sg48
g5
sg49
g5
sg50
g5
sg51
g14
sg52
g29
(g33
S';\xa5\xb6r\x0c\xae}\xbf'
p507
tp508
Rp509
sg56
g5
sg57
g29
(g33
S' \xff)\x8d\xd2\x8b{\xbf'
p510
tp511
Rp512
sg61
F0.0
ssS'GOLD JOSEPH'
p513
(dp514
g3
g5
sg4
g5
sg6
g5
sg7
F0.02988112339952312
sg8
I00
sg9
g5
sg10
S'joe.gold@enron.com'
p515
sg12
I304805
sg13
g14
sg15
F0.022984088170409627
sg16
g14
sg17
g5
sg18
g14
sg19
g5
sg20
g5
sg21
g5
sg22
I819288
sg23
F4483979.0
sg24
g14
sg25
g14
sg26
g5
sg27
F0.07908392198290129
sg28
g14
sg39
g14
sg40
I750000
sg41
I877611
sg42
g5
sg43
g5
sg44
g14
sg48
I441096
sg49
I272880
sg50
I2146973
sg51
F0.05923795738124325
sg52
g14
sg56
I436515
sg57
g14
sg61
g14
ssS'BANNANTINE JAMES M'
p516
(dp517
g3
I566
sg4
g5
sg6
I56301
sg7
F0.11906167408699841
sg8
I00
sg9
I-5104
sg10
S'james.bannantine@enron.com'
p518
sg12
g5
sg13
F6.127250900360144
sg15
F0.05231579202472599
sg16
F0.24611060355039932
sg17
I-560222
sg18
g14
sg19
I465
sg20
g5
sg21
I29
sg22
I864523
sg23
F10206318.0
sg24
F0.0
sg25
F-0.03624556733860454
sg26
g5
sg27
F0.08345034894252543
sg28
g29
(g33
S"\xaf\x89G'\xf2\x91\xb8?"
p519
tp520
Rp521
sg39
F0.0020183741648106906
sg40
g5
sg41
I5243487
sg42
I39
sg43
I0
sg44
g29
(g33
S'\xcd\xdb\xde\x96?\xc9\xdd?'
p522
tp523
Rp524
sg48
I1757552
sg49
I477
sg50
I916197
sg51
g14
sg52
g29
(g33
S'\x92\r\x14\x843\xa3z?'
p525
tp526
Rp527
sg56
I4046157
sg57
g29
(g33
S'\x0c\x95\x08\xcb\xfe\xddA?'
p528
tp529
Rp530
sg61
F0.0
ssS'DUNCAN JOHN H'
p531
(dp532
g3
g5
sg4
g5
sg6
g5
sg7
g14
sg8
I00
sg9
I-25000
sg10
g5
sg12
g5
sg13
F30.012004801920767
sg15
F0.004208260679900807
sg16
g14
sg17
g5
sg18
g14
sg19
g5
sg20
g5
sg21
g5
sg22
g5
sg23
F820992.0
sg24
g14
sg25
g14
sg26
I102492
sg27
g14
sg28
g14
sg39
g14
sg40
g5
sg41
I371750
sg42
g5
sg43
g5
sg44
g14
sg48
g5
sg49
g5
sg50
I77492
sg51
g14
sg52
g14
sg56
I371750
sg57
g14
sg61
g14
ssS'SHAPIRO RICHARD S'
p533
(dp534
g3
I15149
sg4
g5
sg6
I137767
sg7
F0.02568566995088775
sg8
I00
sg9
g5
sg10
S'richard.shapiro@enron.com'
p535
sg12
g5
sg13
g14
sg15
F0.01830668642856434
sg16
F0.6022258844306116
sg17
g5
sg18
g14
sg19
I4527
sg20
g5
sg21
I1215
sg22
I705
sg23
F3571462.0
sg24
F0.053497942386831275
sg25
g14
sg26
g5
sg27
F6.805197317420176e-05
sg28
g29
(g33
S'\xee\xbd\x8e\xdb\x9eW\xd1\xbf'
p536
tp537
Rp538
sg39
F0.08456291759465479
sg40
I650000
sg41
I987001
sg42
I74
sg43
I65
sg44
g29
(g33
S'S\xaa\xe8\xc4\xdcN\xd5\xbf'
p539
tp540
Rp541
sg48
I379164
sg49
I269076
sg50
I1057548
sg51
g14
sg52
g29
(g33
S'49b\xdc=\x0es\xbf'
p542
tp543
Rp544
sg56
I607837
sg57
g29
(g33
S'\xecu\x13\xa4\xe88Y\xbf'
p545
tp546
Rp547
sg61
F0.053497942386831275
ssS'SHERRIFF JOHN R'
p548
(dp549
g3
I3187
sg4
g5
sg6
g5
sg7
F0.0876202961530025
sg8
I00
sg9
g5
sg10
S'john.sherriff@enron.com'
p550
sg12
I554422
sg13
g14
sg15
F0.05755638345134621
sg16
g14
sg17
g5
sg18
g14
sg19
I2103
sg20
g5
sg21
I92
sg22
I1852186
sg23
F11228708.0
sg24
F0.25
sg25
g14
sg26
g5
sg27
F0.1787871091994781
sg28
g29
(g33
S'\xac\xef\xffY\x80\x04\xb2\xbf'
p551
tp552
Rp553
sg39
F0.006403118040089087
sg40
I1500000
sg41
I3128982
sg42
I28
sg43
I23
sg44
g29
(g33
S'az\xb3\\mv\xc5?'
p554
tp555
Rp556
sg48
I1293424
sg49
I428780
sg50
I4335388
sg51
F0.10775028889691327
sg52
g29
(g33
S'\xa5s\xb1\xc8\x9f1c?'
p557
tp558
Rp559
sg56
I1835558
sg57
g29
(g33
S'r\r&\xfdW4:\xbf'
p560
tp561
Rp562
sg61
F0.25
ssS'SHELBY REX'
p563
(dp564
g3
I225
sg4
g5
sg6
I22884
sg7
F0.0588834858655111
sg8
I01
sg9
I-4167
sg10
S'rex.shelby@enron.com'
p565
sg12
g5
sg13
F5.002400960384153
sg15
F0.03349080787992548
sg16
F0.10003365928930814
sg17
g5
sg18
g14
sg19
I91
sg20
g5
sg21
I39
sg22
I1573324
sg23
F6533741.0
sg24
F0.358974358974359
sg25
g14
sg26
g5
sg27
F0.15186922360613872
sg28
g29
(g33
S'\xf4\x17\x05Q\xdc\x0f\xc0?'
p566
tp567
Rp568
sg39
F0.0027143652561247215
sg40
I200000
sg41
I2493616
sg42
I13
sg43
I14
sg44
g29
(g33
S'nm\xd7\xc8o(\xd5?'
p569
tp570
Rp571
sg48
I869220
sg49
I211844
sg50
I2003885
sg51
g14
sg52
g29
(g33
S'\xf9;\x8a\xb8\xe0\xebr?'
p572
tp573
Rp574
sg56
I1624396
sg57
g29
(g33
S'\x06MCd8\\G?'
p575
tp576
Rp577
sg61
F0.358974358974359
ssS'LEMAISTRE CHARLES'
p578
(dp579
g3
g5
sg4
g5
sg6
g5
sg7
g14
sg8
I00
sg9
I-25000
sg10
g5
sg12
g5
sg13
F30.012004801920767
sg15
F0.004681148719351775
sg16
g14
sg17
g5
sg18
g14
sg19
g5
sg20
g5
sg21
g5
sg22
g5
sg23
F913248.0
sg24
g14
sg25
g14
sg26
I112492
sg27
g14
sg28
g14
sg39
g14
sg40
g5
sg41
I412878
sg42
g5
sg43
g5
sg44
g14
sg48
g5
sg49
g5
sg50
I87492
sg51
g14
sg52
g14
sg56
I412878
sg57
g14
sg61
g14
ssS'DEFFNER JOSEPH M'
p580
(dp581
g3
I714
sg4
g5
sg6
I41626
sg7
F0.009608179115486339
sg8
I00
sg9
g5
sg10
S'joseph.deffner@enron.com'
p582
sg12
I335349
sg13
g14
sg15
F0.011232521041918499
sg16
F0.18196124373259662
sg17
g5
sg18
g14
sg19
I552
sg20
g5
sg21
I74
sg22
I25553
sg23
F2191359.0
sg24
F0.05405405405405406
sg25
g14
sg26
g5
sg27
F0.0024665703127948616
sg28
g29
(g33
S'ZK\x86=\xe8%\xb1?'
p583
tp584
Rp585
sg39
F0.00515033407572383
sg40
I600000
sg41
I159211
sg42
I115
sg43
I4
sg44
g29
(g33
S'1\xec\xd5\xc8\xf3\xf2\xd2\xbf'
p586
tp587
Rp588
sg48
I141833
sg49
I206121
sg50
I1208649
sg51
F0.06517409415804382
sg52
g29
(g33
S'\xcf\xc4lb+\xf2p\xbf'
p589
tp590
Rp591
sg56
I17378
sg57
g29
(g33
S'HF\xc4C\x9b\xf08?'
p592
tp593
Rp594
sg61
F0.05405405405405406
ssS'KISHKILL JOSEPH G'
p595
(dp596
g3
g5
sg4
g5
sg6
I116335
sg7
F0.07006960041306913
sg8
I00
sg9
I-51042
sg10
S'joe.kishkill@enron.com'
p597
sg12
g5
sg13
F61.27490996398559
sg15
F0.009808203139448418
sg16
F0.5085394054108401
sg17
g5
sg18
g14
sg19
g5
sg20
g5
sg21
g5
sg22
I465357
sg23
F1913488.0
sg24
g14
sg25
g14
sg26
g5
sg27
F0.04491980436940001
sg28
g14
sg39
g14
sg40
g5
sg41
I1034346
sg42
g5
sg43
g5
sg44
g14
sg48
I1034346
sg49
I174246
sg50
I704896
sg51
g14
sg52
g14
sg56
g5
sg57
g14
sg61
g14
ssS'WHALLEY LAWRENCE G'
p598
(dp599
g3
I6019
sg4
g5
sg6
I57838
sg7
F0.18942114638062543
sg8
I00
sg9
g5
sg10
S'greg.whalley@enron.com'
p600
sg12
I808346
sg13
g14
sg15
F0.0899583945049196
sg16
F0.25282934740320767
sg17
g5
sg18
g14
sg19
I3920
sg20
g5
sg21
I556
sg22
I301026
sg23
F17550035.0
sg24
F0.04316546762589928
sg25
g14
sg26
g5
sg27
F0.02905732379679044
sg28
g29
(g33
S'\x82D=\xbc\xc1\xb7\xa6\xbf'
p601
tp602
Rp603
sg39
F0.03869710467706013
sg40
I3000000
sg41
I6079137
sg42
I186
sg43
I24
sg44
g29
(g33
S'\xe5\xb7\xa9\x94E\xfa\xd1\xbf'
p604
tp605
Rp606
sg48
I2796177
sg49
I510364
sg50
I4677574
sg51
F0.1570996732248436
sg52
g29
(g33
S't\xc1c\xc3\xc6\x13p\xbf'
p607
tp608
Rp609
sg56
I3282960
sg57
g29
(g33
S'\xdak\xc2A+\x850\xbf'
p610
tp611
Rp612
sg61
F0.04316546762589928
ssS'PIRO JIM'
p613
(dp614
g3
I58
sg4
g5
sg6
g5
sg7
F0.003204510268265959
sg8
I00
sg9
g5
sg10
S'jim.piro@enron.com'
p615
sg12
g5
sg13
g14
sg15
F0.00024247198901088896
sg16
g14
sg17
g5
sg18
g14
sg19
I3
sg20
g5
sg21
I16
sg22
g5
sg23
F47304.0
sg24
F0.0625
sg25
g14
sg26
g5
sg27
g14
sg28
g29
(g33
S'\x11\x9b\xb5\x04\x99O\xd7\xbf'
p616
tp617
Rp618
sg39
F0.0011135857461024498
sg40
g5
sg41
I47304
sg42
I0
sg43
I1
sg44
g29
(g33
S'\xddjF\x8c\xd8\xab\xcc?'
p619
tp620
Rp621
sg48
I47304
sg49
g5
sg50
g5
sg51
g14
sg52
g29
(g33
S'\x19\xd12\xcc\xf7\xa3i?'
p622
tp623
Rp624
sg56
g5
sg57
g29
(g33
S'\x9e\x17\xc1\x1f\x96\xf3`\xbf'
p625
tp626
Rp627
sg61
F0.0625
ssS'MCCONNELL MICHAEL S'
p628
(dp629
g3
I3329
sg4
g5
sg6
I81364
sg7
F0.1001422329984621
sg8
I00
sg9
g5
sg10
S'mike.mcconnell@enron.com'
p630
sg12
I554422
sg13
g14
sg15
F0.042496624747266114
sg16
F0.3556694045802862
sg17
g5
sg18
g14
sg19
I2189
sg20
g5
sg21
I2742
sg22
I540
sg23
F8290691.0
sg24
F0.07075127644055434
sg25
g14
sg26
g5
sg27
F5.2124915622792834e-05
sg28
g29
(g33
S'\x1b\xa50|\x8a\x1f\xcd\xbf'
p631
tp632
Rp633
sg39
F0.19084075723830735
sg40
I1100000
sg41
I3101279
sg42
I92
sg43
I194
sg44
g29
(g33
S'\x80\x99,\xe7`q\xd9\xbf'
p634
tp635
Rp636
sg48
I1478269
sg49
I365038
sg50
I2101364
sg51
F0.10775028889691327
sg52
g29
(g33
S'\xc0~\xa8Q\xdd\xc0v\xbf'
p637
tp638
Rp639
sg56
I1623010
sg57
g29
(g33
S'P\x9c\x0f*\x9b-U\xbf'
p640
tp641
Rp642
sg61
F0.07075127644055434
ssS'DELAINEY DAVID W'
p643
(dp644
g3
I3093
sg4
g5
sg6
I86174
sg7
F0.08963388619219448
sg8
I01
sg9
g5
sg10
S'david.delainey@enron.com'
p645
sg12
I1294981
sg13
g14
sg15
F0.07185644887326592
sg16
F0.3766955320571946
sg17
g5
sg18
g14
sg19
I2097
sg20
g5
sg21
I3069
sg22
I1661
sg23
F14018516.0
sg24
F0.198435972629521
sg25
g14
sg26
g5
sg27
F0.00016033237935084981
sg28
g29
(g33
S'\xff*\xf0Lv@\xd1?'
p646
tp647
Rp648
sg39
F0.21359966592427618
sg40
I3000000
sg41
I3614261
sg42
I66
sg43
I609
sg44
g29
(g33
S'hhy\xdeo\x95\xe7?'
p649
tp650
Rp651
sg48
I1323148
sg49
I365163
sg50
I4747979
sg51
F0.2516757575745797
sg52
g29
(g33
S'\xf9\x18\xc7\xd0;\x17\x85?'
p652
tp653
Rp654
sg56
I2291113
sg57
g29
(g33
S'\x82\x1c\x83?:\x17Y?'
p655
tp656
Rp657
sg61
F0.198435972629521
ssS'SULLIVAN-SHAKLOVITZ COLLEEN'
p658
(dp659
g3
g5
sg4
I181993
sg6
g5
sg7
g14
sg8
I00
sg9
g5
sg10
g5
sg12
I554422
sg13
g14
sg15
F0.020436071704457933
sg16
g14
sg17
g5
sg18
F0.028316988201319747
sg19
g5
sg20
g5
sg21
g5
sg22
I162
sg23
F3986885.0
sg24
g14
sg25
g14
sg26
g5
sg27
F1.563747468683785e-05
sg28
g14
sg39
g14
sg40
I100000
sg41
I1362375
sg42
g5
sg43
g5
sg44
g14
sg48
g5
sg49
I162779
sg50
I999356
sg51
F0.10775028889691327
sg52
g14
sg56
I1362375
sg57
g14
sg61
g14
ssS'WROBEL BRUCE'
p660
(dp661
g3
g5
sg4
g5
sg6
g5
sg7
g14
sg8
I00
sg9
g5
sg10
g5
sg12
g5
sg13
g14
sg15
F0.0014263118480925495
sg16
g14
sg17
g5
sg18
g14
sg19
g5
sg20
g5
sg21
g5
sg22
g5
sg23
F278260.0
sg24
g14
sg25
g14
sg26
g5
sg27
g14
sg28
g14
sg39
g14
sg40
g5
sg41
I139130
sg42
g5
sg43
g5
sg44
g14
sg48
g5
sg49
g5
sg50
g5
sg51
g14
sg52
g14
sg56
I139130
sg57
g14
sg61
g14
ssS'LINDHOLM TOD A'
p662
(dp663
g3
g5
sg4
I204075
sg6
I57727
sg7
F0.03487723021490623
sg8
I00
sg9
g5
sg10
S'tod.lindholm@enron.com'
p664
sg12
I175000
sg13
g14
sg15
F0.0355010228684752
sg16
F0.25234412907681747
sg17
g5
sg18
F0.03175281119155312
sg19
g5
sg20
g5
sg21
g5
sg22
I2630
sg23
F6925915.0
sg24
g14
sg25
g14
sg26
g5
sg27
F0.00025386764460730586
sg28
g14
sg39
g14
sg40
I200000
sg41
I3064208
sg42
g5
sg43
g5
sg44
g14
sg48
I514847
sg49
I236457
sg50
I875889
sg51
F0.034010736509301254
sg52
g14
sg56
I2549361
sg57
g14
sg61
g14
ssS'MEYER JEROME J'
p665
(dp666
g3
g5
sg4
g5
sg6
I2151
sg7
g14
sg8
I00
sg9
I-38346
sg10
g5
sg12
g5
sg13
F46.03361344537815
sg15
F1.1025647902131367e-05
sg16
F0.009402744324912683
sg17
g5
sg18
g14
sg19
g5
sg20
g5
sg21
g5
sg22
g5
sg23
F2151.0
sg24
g14
sg25
g14
sg26
I38346
sg27
g14
sg28
g14
sg39
g14
sg40
g5
sg41
g5
sg42
g5
sg43
g5
sg44
g14
sg48
g5
sg49
g5
sg50
I2151
sg51
g14
sg52
g14
sg56
g5
sg57
g14
sg61
g14
ssS'LAY KENNETH L'
p667
(dp668
g3
I4273
sg4
I202911
sg6
I99832
sg7
F1.0
sg8
I01
sg9
I-300000
sg10
S'kenneth.lay@enron.com'
p669
sg12
I3600000
sg13
F360.1440576230492
sg15
F1.0
sg16
F0.4363992428845574
sg17
g5
sg18
F0.031571699971526326
sg19
I2411
sg20
I81525000
sg21
I36
sg22
I10359729
sg23
F195090576.0
sg24
F0.4444444444444444
sg25
g14
sg26
g5
sg27
F1.0
sg28
g29
(g33
S'\x1a\xbfL\x0f\xaa\xaf\xd6?'
p670
tp671
Rp672
sg39
F0.0025055679287305124
sg40
I7000000
sg41
I49110078
sg42
I123
sg43
I16
sg44
g29
(g33
S'k\xe9\xbe[m\x01\xe3?'
p673
tp674
Rp675
sg48
I14761694
sg49
I1072321
sg50
I103559793
sg51
F0.6996494367627687
sg52
g29
(g33
S'\xddY4@\x1d\xff\x80?'
p676
tp677
Rp678
sg56
I34348384
sg57
g29
(g33
S'\x04\xf8\x82\xc0H\x7f`?'
p679
tp680
Rp681
sg61
F0.4444444444444444
ssS'BUTTS ROBERT H'
p682
(dp683
g3
g5
sg4
g5
sg6
I9410
sg7
F0.028290723273358735
sg8
I00
sg9
I-75000
sg10
S'bob.butts@enron.com'
p684
sg12
I175000
sg13
F90.0360144057623
sg15
F0.013843400616132272
sg16
F0.04113427433632187
sg17
g5
sg18
g14
sg19
g5
sg20
g5
sg21
g5
sg22
I150656
sg23
F2700717.0
sg24
g14
sg25
g14
sg26
g5
sg27
F0.014542465348273106
sg28
g14
sg39
g14
sg40
I750000
sg41
I417619
sg42
g5
sg43
g5
sg44
g14
sg48
I417619
sg49
I261516
sg50
I1271582
sg51
F0.034010736509301254
sg52
g14
sg56
g5
sg57
g14
sg61
g14
ssS'OLSON CINDY K'
p685
(dp686
g3
I1184
sg4
I77716
sg6
I63791
sg7
F0.06569225727074413
sg8
I00
sg9
g5
sg10
S'cindy.olson@enron.com'
p687
sg12
I100000
sg13
g14
sg15
F0.03405819048891424
sg16
F0.278851912241053
sg17
g5
sg18
F0.012092130219589575
sg19
I856
sg20
g5
sg21
I52
sg22
I972
sg23
F6644432.0
sg24
F0.28846153846153844
sg25
g14
sg26
g5
sg27
F9.38248481210271e-05
sg28
g29
(g33
S'\xb5\xf1\xbe2\t\xaf\xb8\xbf'
p688
tp689
Rp690
sg39
F0.003619153674832962
sg40
I750000
sg41
I2606763
sg42
I20
sg43
I15
sg44
g29
(g33
S'\xf8\x81}\xa9\x16\x83\xd5\xbf'
p691
tp692
Rp693
sg48
I969729
sg49
I329078
sg50
I1321557
sg51
F0.019434706576743576
sg52
g29
(g33
S'<\x8f$t\xf2<s\xbf'
p694
tp695
Rp696
sg56
I1637034
sg57
g29
(g33
S'\x14\xee\x8a8&\xf3A\xbf'
p697
tp698
Rp699
sg61
F0.28846153846153844
ssS'MCDONALD REBECCA'
p700
(dp701
g3
I894
sg4
g5
sg6
g5
sg7
F0.06327627438964661
sg8
I00
sg9
g5
sg10
S'rebecca.mcdonald@enron.com'
p702
sg12
g5
sg13
g14
sg15
F0.012551436620905769
sg16
g14
sg17
g5
sg18
g14
sg19
I720
sg20
g5
sg21
I13
sg22
g5
sg23
F2448667.0
sg24
F0.07692307692307693
sg25
g14
sg26
g5
sg27
g14
sg28
g29
(g33
S'\xc6}\xc5\x95{\x8a\xbf\xbf'
p703
tp704
Rp705
sg39
F0.0009047884187082405
sg40
g5
sg41
I1691366
sg42
I54
sg43
I1
sg44
g29
(g33
S'\x82\x8f\xb9)\xe3\xb5\xe5?'
p706
tp707
Rp708
sg48
I934065
sg49
g5
sg50
g5
sg51
g14
sg52
g29
(g33
S'qz|G`j\x83?'
p709
tp710
Rp711
sg56
I757301
sg57
g29
(g33
S'\x80^J\x01\xb2\xefF\xbf'
p712
tp713
Rp714
sg61
F0.07692307692307693
ssS'CUMBERLAND MICHAEL S'
p715
(dp716
g3
g5
sg4
g5
sg6
I22344
sg7
F0.014086459182801107
sg8
I00
sg9
g5
sg10
g5
sg12
I275000
sg13
g14
sg15
F0.00782095696923874
sg16
F0.09767313770146396
sg17
g5
sg18
g14
sg19
g5
sg20
g5
sg21
g5
sg22
I713
sg23
F1525795.0
sg24
g14
sg25
g14
sg26
g5
sg27
F6.882419414639128e-05
sg28
g14
sg39
g14
sg40
I325000
sg41
I207940
sg42
g5
sg43
g5
sg44
g14
sg48
I207940
sg49
I184899
sg50
I807956
sg51
F0.05344544308604483
sg52
g14
sg56
g5
sg57
g14
sg61
g14
ssS'GAHN ROBERT S'
p717
(dp718
g3
g5
sg4
I73122
sg6
I50080
sg7
F0.01594464700325044
sg8
I00
sg9
I-1042
sg10
g5
sg12
g5
sg13
F1.2509003601440576
sg15
F0.010273725369491964
sg16
F0.21891652059117953
sg17
g5
sg18
F0.011377332157043967
sg19
g5
sg20
g5
sg21
g5
sg22
I76547
sg23
F2004307.0
sg24
g14
sg25
g14
sg26
g5
sg27
F0.007388899844773932
sg28
g14
sg39
g14
sg40
I509870
sg41
I318607
sg42
g5
sg43
g5
sg44
g14
sg48
I235370
sg49
I192008
sg50
I900585
sg51
g14
sg52
g14
sg56
I83237
sg57
g14
sg61
g14
ssS'BADUM JAMES P'
p719
(dp720
g3
g5
sg4
I178980
sg6
I3486
sg7
g14
sg8
I00
sg9
g5
sg10
g5
sg12
g5
sg13
g14
sg15
F0.003578337889575968
sg16
F0.01523847825041637
sg17
g5
sg18
F0.027848183986594034
sg19
g5
sg20
g5
sg21
g5
sg22
g5
sg23
F698100.0
sg24
g14
sg25
g14
sg26
g5
sg27
g14
sg28
g14
sg39
g14
sg40
g5
sg41
I257817
sg42
g5
sg43
g5
sg44
g14
sg48
g5
sg49
g5
sg50
I182466
sg51
g14
sg52
g14
sg56
I257817
sg57
g14
sg61
g14
ssS'HERMANN ROBERT J'
p721
(dp722
g3
g5
sg4
g5
sg6
I48357
sg7
F0.0325594067997887
sg8
I00
sg9
I-280000
sg10
S'robert.hermann@enron.com'
p723
sg12
I150000
sg13
F336.1344537815126
sg15
F0.015970817575524508
sg16
F0.21138470819144706
sg17
g5
sg18
g14
sg19
g5
sg20
g5
sg21
g5
sg22
I416441
sg23
F3115756.0
sg24
g14
sg25
g14
sg26
g5
sg27
F0.04019805923494717
sg28
g14
sg39
g14
sg40
I700000
sg41
I668132
sg42
g5
sg43
g5
sg44
g14
sg48
I480632
sg49
I262663
sg50
I1297461
sg51
F0.029152059865115362
sg52
g14
sg56
I187500
sg57
g14
sg61
g14
ssS'FALLON JAMES B'
p724
(dp725
g3
I1755
sg4
g5
sg6
I95924
sg7
F0.09430774001953976
sg8
I00
sg9
g5
sg10
S'jim.fallon@enron.com'
p726
sg12
I374347
sg13
g14
sg15
F0.04999515712127479
sg16
F0.4193160607266035
sg17
g5
sg18
g14
sg19
I1604
sg20
g5
sg21
I75
sg22
I401481
sg23
F9753584.0
sg24
F0.49333333333333335
sg25
g14
sg26
g5
sg27
F0.03875400601695276
sg28
g29
(g33
S'4\xf5\xe1\xcbS\xa9\xd0\xbf'
p727
tp728
Rp729
sg39
F0.005219933184855234
sg40
I2500000
sg41
I2332399
sg42
I42
sg43
I37
sg44
g29
(g33
S"P\xe0c\xe9'\x0e\xd5\xbf"
p730
tp731
Rp732
sg48
I1392142
sg49
I304588
sg50
I3676340
sg51
F0.07275324102884227
sg52
g29
(g33
S'na#\t`\xd4r\xbf'
p733
tp734
Rp735
sg56
I940257
sg57
g29
(g33
S'\x01~\x84ok;X\xbf'
p736
tp737
Rp738
sg61
F0.49333333333333335
ssS'GATHMANN WILLIAM D'
p739
(dp740
g3
g5
sg4
g5
sg6
g5
sg7
F0.017885006964647825
sg8
I00
sg9
g5
sg10
g5
sg12
g5
sg13
g14
sg15
F0.018961069652077917
sg16
g14
sg17
I-72419
sg18
g14
sg19
g5
sg20
g5
sg21
g5
sg22
g5
sg23
F3699126.0
sg24
g14
sg25
F-0.00468540639441936
sg26
g5
sg27
g14
sg28
g14
sg39
g14
sg40
g5
sg41
I1945360
sg42
g5
sg43
g5
sg44
g14
sg48
I264013
sg49
g5
sg50
g5
sg51
g14
sg52
g14
sg56
I1753766
sg57
g14
sg61
g14
ssS'HORTON STANLEY C'
p741
(dp742
g3
I2350
sg4
I3131860
sg6
g5
sg7
F0.1386073305678874
sg8
I00
sg9
g5
sg10
S'stanley.horton@enron.com'
p743
sg12
g5
sg13
g14
sg15
F0.07995812673186223
sg16
g14
sg17
g5
sg18
F0.48729809755422054
sg19
I1074
sg20
g5
sg21
I1073
sg22
g5
sg23
F15599077.0
sg24
F0.013979496738117428
sg25
g14
sg26
g5
sg27
g14
sg28
g29
(g33
S'\x91\xf2U~tX\xc8\xbf'
p744
tp745
Rp746
sg39
F0.07467984409799555
sg40
g5
sg41
I7256648
sg42
I44
sg43
I15
sg44
g29
(g33
S'\xd7\xf4\x1d\x02\x00\xe0\xd7\xbf'
p747
tp748
Rp749
sg48
I2046079
sg49
g5
sg50
I3131860
sg51
g14
sg52
g29
(g33
S'I\xe061\xeaYu\xbf'
p750
tp751
Rp752
sg56
I5210569
sg57
g29
(g33
S'N\xd4V<0\xb4Q\xbf'
p753
tp754
Rp755
sg61
F0.013979496738117428
ssS'BOWEN JR RAYMOND M'
p756
(dp757
g3
I1858
sg4
g5
sg6
I65907
sg7
F0.01707493733442788
sg8
I01
sg9
I-833
sg10
S'raymond.bowen@enron.com'
p758
sg12
I974293
sg13
F1.0
sg15
F0.02332375603832345
sg16
F0.28810165979638314
sg17
g5
sg18
g14
sg19
I1593
sg20
g5
sg21
I27
sg22
I1621
sg23
F4550245.0
sg24
F0.5555555555555556
sg25
g14
sg26
g5
sg27
F0.0001564712744899022
sg28
g29
(g33
S'ZK\x86=\xe8%\xb1?'
p759
tp760
Rp761
sg39
F0.0018791759465478842
sg40
I1350000
sg41
I252055
sg42
I140
sg43
I15
sg44
g29
(g33
S'\xba\xd8\x1c\xc1\x88\xe1\xca\xbf'
p762
tp763
Rp764
sg48
I252055
sg49
I278601
sg50
I2669589
sg51
F0.18935098574775228
sg52
g29
(g33
S'\x8e\xe9Ts\x1a\nh\xbf'
p765
tp766
Rp767
sg56
g5
sg57
g29
(g33
S'HF\xc4C\x9b\xf08?'
p768
tp769
Rp770
sg61
F0.5555555555555556
ssS'GILLIS JOHN'
p771
(dp772
g3
g5
sg4
g5
sg6
g5
sg7
F0.005137486253271474
sg8
I00
sg9
g5
sg10
g5
sg12
g5
sg13
g14
sg15
F0.0004892291670716068
sg16
g14
sg17
g5
sg18
g14
sg19
g5
sg20
g5
sg21
g5
sg22
g5
sg23
F95444.0
sg24
g14
sg25
g14
sg26
g5
sg27
g14
sg28
g14
sg39
g14
sg40
g5
sg41
I85641
sg42
g5
sg43
g5
sg44
g14
sg48
I75838
sg49
g5
sg50
g5
sg51
g14
sg52
g14
sg56
I9803
sg57
g14
sg61
g14
ssS'FITZGERALD JAY L'
p773
(dp774
g3
I936
sg4
g5
sg6
I23870
sg7
F0.0648147157094572
sg8
I00
sg9
g5
sg10
S'jay.fitzgerald@enron.com'
p775
sg12
I556416
sg13
g14
sg15
F0.02178327158150376
sg16
F0.10434379685526068
sg17
g5
sg18
g14
sg19
I723
sg20
g5
sg21
I16
sg22
I285414
sg23
F4249711.0
sg24
F0.5
sg25
g14
sg26
g5
sg27
F0.027550334569562584
sg28
g29
(g33
S'\xb7\x83T\t\x9a>\xe3?'
p776
tp777
Rp778
sg39
F0.0011135857461024498
sg40
I350000
sg41
I1621236
sg42
I1
sg43
I8
sg44
g29
(g33
S'\xd9"\xbc\xc08K\xe2?'
p779
tp780
Rp781
sg48
I956775
sg49
I199157
sg50
I1414857
sg51
F0.10813781694605352
sg52
g29
(g33
S'\xf1\xcf]V+\\\x80?'
p782
tp783
Rp784
sg56
I664461
sg57
g29
(g33
S'\xc98?x*\xfdk?'
p785
tp786
Rp787
sg61
F0.5
ssS'MORAN MICHAEL P'
p788
(dp789
g3
I672
sg4
g5
sg6
g5
sg7
F0.010947388558521806
sg8
I00
sg9
g5
sg10
S'michael.moran@enron.com'
p790
sg12
g5
sg13
g14
sg15
F0.001438716342710475
sg16
g14
sg17
g5
sg18
g14
sg19
I127
sg20
g5
sg21
I19
sg22
g5
sg23
F280680.0
sg24
F0.0
sg25
g14
sg26
g5
sg27
g14
sg28
g29
(g33
S'ZK\x86=\xe8%\xb1?'
p791
tp792
Rp793
sg39
F0.0013223830734966592
sg40
g5
sg41
I221141
sg42
I0
sg43
I0
sg44
g29
(g33
S'\xe8\xf2\xfc\x85\xf9\xb8\xd2?'
p794
tp795
Rp796
sg48
I161602
sg49
g5
sg50
g5
sg51
g14
sg52
g29
(g33
S'\xc1\x9ed\x10R\xbep?'
p797
tp798
Rp799
sg56
I59539
sg57
g29
(g33
S'HF\xc4C\x9b\xf08?'
p800
tp801
Rp802
sg61
F0.0
ssS'REDMOND BRIAN L'
p803
(dp804
g3
I1671
sg4
g5
sg6
I14689
sg7
F0.025829352647467153
sg8
I00
sg9
g5
sg10
S'brian.redmond@enron.com'
p805
sg12
g5
sg13
g14
sg15
F0.0800024907405061
sg16
F0.0642105585256357
sg17
g5
sg18
g14
sg19
I1063
sg20
g5
sg21
I221
sg22
g5
sg23
F15607732.0
sg24
F0.22171945701357465
sg25
g14
sg26
g5
sg27
g14
sg28
g29
(g33
S'\xa0\xc8\xfc\x0f\xa2o\xcc\xbf'
p806
tp807
Rp808
sg39
F0.01538140311804009
sg40
g5
sg41
I7890324
sg42
I204
sg43
I49
sg44
g29
(g33
S'\xd3Z\x891\x81E\xc1?'
p809
tp810
Rp811
sg48
I381285
sg49
I96840
sg50
I111529
sg51
g14
sg52
g29
(g33
S'\xc3\xfa\nJ<\xe4^?'
p812
tp813
Rp814
sg56
I7509039
sg57
g29
(g33
S'z\xfb\xfd\xf7\xaf\xadT\xbf'
p815
tp816
Rp817
sg61
F0.22171945701357465
ssS'BAZELIDES PHILIP J'
p818
(dp819
g3
g5
sg4
I684694
sg6
g5
sg7
g14
sg8
I00
sg9
g5
sg10
g5
sg12
I93750
sg13
g14
sg15
F0.0212221219747693
sg16
g14
sg17
g5
sg18
F0.10653416295964363
sg19
g5
sg20
g5
sg21
g5
sg22
I874
sg23
F4140236.0
sg24
g14
sg25
g14
sg26
g5
sg27
F8.436514121170544e-05
sg28
g14
sg39
g14
sg40
g5
sg41
I1599641
sg42
g5
sg43
g5
sg44
g14
sg48
g5
sg49
I80818
sg50
I860136
sg51
F0.018220037415697103
sg52
g14
sg56
I1599641
sg57
g14
sg61
g14
ssS'BELDEN TIMOTHY N'
p820
(dp821
g3
I7991
sg4
I2144013
sg6
I17355
sg7
F0.01067418143202264
sg8
I01
sg9
I-2334434
sg10
S'tim.belden@enron.com'
p822
sg12
g5
sg13
F2802.4417767106843
sg15
F0.06678676780368929
sg16
F0.07586454103154794
sg17
g5
sg18
F0.3335951977519803
sg19
I5521
sg20
g5
sg21
I484
sg22
I210698
sg23
F13029469.0
sg24
F0.2231404958677686
sg25
g14
sg26
g5
sg27
F0.02033817679979853
sg28
g29
(g33
S'\xe4W\xb1\xdd\xe7\x1f\xe3?'
p823
tp824
Rp825
sg39
F0.03368596881959911
sg40
I5249999
sg41
I1110705
sg42
I228
sg43
I108
sg44
g29
(g33
S'\xf4\x8b\x8b&\xfb\xda\xe9?'
p826
tp827
Rp828
sg48
I157569
sg49
I213999
sg50
I5501630
sg51
g14
sg52
g29
(g33
S'(_\xe8\xd6M\x1f\x87?'
p829
tp830
Rp831
sg56
I953136
sg57
g29
(g33
S'\xaeA\x13\xae\x85\xd0k?'
p832
tp833
Rp834
sg61
F0.2231404958677686
ssS'DIMICHELE RICHARD G'
p835
(dp836
g3
g5
sg4
g5
sg6
I35812
sg7
F0.0085374347957626
sg8
I00
sg9
g5
sg10
S'richard.dimichele@enron.com'
p837
sg12
I694862
sg13
g14
sg15
F0.10323653972911537
sg16
F0.15654629463680753
sg17
g5
sg18
g14
sg19
g5
sg20
g5
sg21
g5
sg22
I374689
sg23
F20140476.0
sg24
g14
sg25
g14
sg26
g5
sg27
F0.036167837981090044
sg28
g14
sg39
g14
sg40
I1000000
sg41
I8317782
sg42
g5
sg43
g5
sg44
g14
sg48
I126027
sg49
I262788
sg50
I2368151
sg51
F0.13504439081329195
sg52
g14
sg56
I8191755
sg57
g14
sg61
g14
ssS'DURAN WILLIAM D'
p838
(dp839
g3
I904
sg4
g5
sg6
I25785
sg7
F0.012806186065095239
sg8
I00
sg9
g5
sg10
S'w.duran@enron.com'
p840
sg12
I1105218
sg13
g14
sg15
F0.031507078025132286
sg16
F0.11271490581955998
sg17
g5
sg18
g14
sg19
I599
sg20
g5
sg21
I12
sg22
I1568
sg23
F6146734.0
sg24
F0.25
sg25
g14
sg26
g5
sg27
F0.0001513553105491466
sg28
g29
(g33
S'S\xaaN\xd7\n\xf2k?'
p841
tp842
Rp843
sg39
F0.0008351893095768374
sg40
I750000
sg41
I1640910
sg42
I106
sg43
I3
sg44
g29
(g33
S"E\x81'BX\xfc\xd0?"
p844
tp845
Rp846
sg48
I189041
sg49
I210692
sg50
I2093263
sg51
F0.21479587533335381
sg52
g29
(g33
S'\xe0\x80\xba\x00ban?'
p847
tp848
Rp849
sg56
I1451869
sg57
g29
(g33
S'\xb0e\x95\xdf[R\xf4>'
p850
tp851
Rp852
sg61
F0.25
ssS'THORN TERENCE H'
p853
(dp854
g3
I266
sg4
I16586
sg6
I46145
sg7
F0.02474783720621766
sg8
I00
sg9
g5
sg10
S'terence.thorn@enron.com'
p855
sg12
I200000
sg13
g14
sg15
F0.053328142308626945
sg16
F0.20171531235383344
sg17
g5
sg18
F0.0025806792915501657
sg19
I73
sg20
g5
sg21
I41
sg22
I426629
sg23
F10403818.0
sg24
F0.0
sg25
g14
sg26
g5
sg27
F0.04118148264303053
sg28
g29
(g33
S'\xd0e\x10$\xe2\x1e\x87?'
p856
tp857
Rp858
sg39
F0.002853563474387528
sg40
g5
sg41
I4817796
sg42
I0
sg43
I0
sg44
g29
(g33
S'\xe3\xd5\x91\x96\xd5k\xca?'
p859
tp860
Rp861
sg48
I365320
sg49
I222093
sg50
I911453
sg51
F0.03886941315348715
sg52
g29
(g33
S'\x08\xa1\x1fa\xd8\xa0g?'
p862
tp863
Rp864
sg56
I4452476
sg57
g29
(g33
S'|\xf7ah)\xd0\x10?'
p865
tp866
Rp867
sg61
F0.0
ssS'FASTOW ANDREW S'
p868
(dp869
g3
g5
sg4
g5
sg6
I55921
sg7
F0.12155867747969847
sg8
I01
sg9
I-1386055
sg10
S'andrew.fastow@enron.com'
p870
sg12
I1736055
sg13
F1663.9315726290515
sg15
F0.030545775824661055
sg16
F0.24444949576636082
sg17
g5
sg18
g14
sg19
g5
sg20
g5
sg21
g5
sg22
I277464
sg23
F5959193.0
sg24
g14
sg25
g14
sg26
g5
sg27
F0.026782939978449244
sg28
g14
sg39
g14
sg40
I1300000
sg41
I1794412
sg42
g5
sg43
g5
sg44
g14
sg48
I1794412
sg49
I440698
sg50
I2424083
sg51
F0.3373971952608857
sg52
g14
sg56
g5
sg57
g14
sg61
g14
ssS'FOY JOE'
p871
(dp872
g3
I57
sg4
I181755
sg6
g5
sg7
g14
sg8
I00
sg9
g5
sg10
S'tracy.foy@enron.com'
p873
sg12
g5
sg13
g14
sg15
F0.004452408813432382
sg16
g14
sg17
g5
sg18
F0.02827995686938987
sg19
I2
sg20
g5
sg21
I13
sg22
g5
sg23
F868623.0
sg24
F0.0
sg25
g14
sg26
g5
sg27
g14
sg28
g29
(g33
S'\x93Q\x00\xc6\xa5n\xcf?'
p874
tp875
Rp876
sg39
F0.0009047884187082405
sg40
g5
sg41
I343434
sg42
I0
sg43
I0
sg44
g29
(g33
S'br\xa6\x9f(X\xe3\xbf'
p877
tp878
Rp879
sg48
g5
sg49
g5
sg50
I181755
sg51
g14
sg52
g29
(g33
S'\x05\xf7\xf9u\xadL\x81\xbf'
p880
tp881
Rp882
sg56
I343434
sg57
g29
(g33
S'\xc0\xb7\xe1,t\xdbV?'
p883
tp884
Rp885
sg61
F0.0
ssS'CALGER CHRISTOPHER F'
p886
(dp887
g3
I2598
sg4
g5
sg6
I35818
sg7
F0.0085374347957626
sg8
I01
sg9
I-262500
sg10
S'christopher.calger@enron.com'
p888
sg12
I375304
sg13
F315.12605042016804
sg15
F0.016687187391358157
sg16
F0.15657252265445024
sg17
g5
sg18
g14
sg19
I2188
sg20
g5
sg21
I144
sg22
I486
sg23
F3255513.0
sg24
F0.1736111111111111
sg25
g14
sg26
g5
sg27
F4.691242406051355e-05
sg28
g29
(g33
S'+\x80\x1f1\x90\x06\xe5?'
p889
tp890
Rp891
sg39
F0.01002227171492205
sg40
I1250000
sg41
I126027
sg42
I199
sg43
I25
sg44
g29
(g33
S'\xc8\xc1%\xc5\xc7\xdf\xe7?'
p892
tp893
Rp894
sg48
I126027
sg49
I240189
sg50
I1639297
sg51
F0.0729392311707817
sg52
g29
(g33
S'\x8bb\x1d\xe6\xb7Y\x85?'
p895
tp896
Rp897
sg56
g5
sg57
g29
(g33
S'm\xcfH\x02O\x94n?'
p898
tp899
Rp900
sg61
F0.1736111111111111
ssS'RICE KENNETH D'
p901
(dp902
g3
I905
sg4
g5
sg6
I46950
sg7
F0.1861821549748965
sg8
I01
sg9
I-3504386
sg10
S'ken.rice@enron.com'
p903
sg12
I1617011
sg13
F4206.945978391356
sg15
F0.23072565022310457
sg16
F0.2052342380542308
sg17
g5
sg18
g14
sg19
I864
sg20
g5
sg21
I18
sg22
I174839
sg23
F45012400.0
sg24
F0.2222222222222222
sg25
g14
sg26
g5
sg27
F0.016876792819580513
sg28
g29
(g33
S'\xd0 \x05Q\xba\xbc\xe1?'
p904
tp905
Rp906
sg39
F0.0012527839643652562
sg40
I1750000
sg41
I22542539
sg42
I42
sg43
I4
sg44
g29
(g33
S'\xe3\xe9\xee]\xad\xc7\xda?'
p907
tp908
Rp909
sg48
I2748364
sg49
I420636
sg50
I505050
sg51
F0.31426134316366705
sg52
g29
(g33
S')\xc2u\xc8\xfa\xf2w?'
p910
tp911
Rp912
sg56
I19794175
sg57
g29
(g33
S'\x95\x95\xa7\x1a\xf5\xcbi?'
p913
tp914
Rp915
sg61
F0.2222222222222222
ssS'KAMINSKI WINCENTY J'
p916
(dp917
g3
I4607
sg4
g5
sg6
I83585
sg7
F0.0085374347957626
sg8
I00
sg9
g5
sg10
S'vince.kaminski@enron.com'
p918
sg12
I323466
sg13
g14
sg15
F0.01839129840900157
sg16
F0.36537814244436384
sg17
g5
sg18
g14
sg19
I583
sg20
g5
sg21
I14368
sg22
I4669
sg23
F3587969.0
sg24
F0.011901447661469933
sg25
g14
sg26
g5
sg27
F0.00045068746489411064
sg28
g29
(g33
S'\xc6\x97G\x1b\x18\xd4\xd6\xbf'
p919
tp920
Rp921
sg39
F1.0
sg40
I400000
sg41
I976037
sg42
I41
sg43
I171
sg44
g29
(g33
S'\x98\xcb\x100\xeb]\xf7\xbf'
p922
tp923
Rp924
sg48
I126027
sg49
I275101
sg50
I1086821
sg51
F0.06286466797552938
sg52
g29
(g33
S'\xe4\x03\x06\x86\x95\xe5\x94\xbf'
p925
tp926
Rp927
sg56
I850010
sg57
g29
(g33
S'\x8f\xee\xf6\x92\xc6\x99`\xbf'
p928
tp929
Rp930
sg61
F0.011901447661469933
ssS'LOCKHART EUGENE E'
p931
(dp932
g3
g5
sg4
g5
sg6
g5
sg7
g14
sg8
I00
sg9
g5
sg10
g5
sg12
g5
sg13
g14
sg15
F0.0
sg16
g14
sg17
g5
sg18
g14
sg19
g5
sg20
g5
sg21
g5
sg22
g5
sg23
I0
sg24
g14
sg25
g14
sg26
g5
sg27
g14
sg28
g14
sg39
g14
sg40
g5
sg41
g5
sg42
g5
sg43
g5
sg44
g14
sg48
g5
sg49
g5
sg50
g5
sg51
g14
sg52
g14
sg56
g5
sg57
g14
sg61
g14
ssS'COX DAVID'
p933
(dp934
g3
I102
sg4
g5
sg6
I27861
sg7
F0.025612372130190478
sg8
I00
sg9
I-41250
sg10
S'chip.cox@enron.com'
p935
sg12
g5
sg13
F49.51980792316927
sg15
F0.014500264738569432
sg16
F0.12178979992393875
sg17
g5
sg18
g14
sg19
I71
sg20
g5
sg21
I33
sg22
I494
sg23
F2828865.0
sg24
F0.12121212121212122
sg25
g14
sg26
g5
sg27
F4.768464503270308e-05
sg28
g29
(g33
S'0\x19\x07\x17f@\xc9\xbf'
p936
tp937
Rp938
sg39
F0.002296770601336303
sg40
I800000
sg41
I495633
sg42
I0
sg43
I4
sg44
g29
(g33
S'\xf7\x94k\x1dx\xcf\xb2\xbf'
p939
tp940
Rp941
sg48
I378082
sg49
I314288
sg50
I1101393
sg51
g14
sg52
g29
(g33
S'"I\xa7\xedo\xd2P\xbf'
p942
tp943
Rp944
sg56
I117551
sg57
g29
(g33
S'\x04\xb6\xb2\x1e\xdb\\R\xbf'
p945
tp946
Rp947
sg61
F0.12121212121212122
ssS'OVERDYKE JR JERE C'
p948
(dp949
g3
g5
sg4
g5
sg6
I18834
sg7
F0.1382643482516302
sg8
I00
sg9
g5
sg10
S'jere.overdyke@enron.com'
p950
sg12
I135836
sg13
g14
sg15
F0.06622001054525566
sg16
F0.08232974738047674
sg17
g5
sg18
g14
sg19
g5
sg20
g5
sg21
g5
sg22
I176
sg23
F12918900.0
sg24
g14
sg25
g14
sg26
g5
sg27
F1.6988861388169517e-05
sg28
g14
sg39
g14
sg40
g5
sg41
I7307594
sg42
g5
sg43
g5
sg44
g14
sg48
I2041016
sg49
I94941
sg50
I249787
sg51
F0.0263993280255854
sg52
g14
sg56
I5266578
sg57
g14
sg61
g14
ssS'PEREIRA PAULO V. FERRAZ'
p951
(dp952
g3
g5
sg4
g5
sg6
I27942
sg7
g14
sg8
I00
sg9
I-101250
sg10
g5
sg12
g5
sg13
F121.54861944777912
sg15
F0.00014322578041903983
sg16
F0.12214387816211537
sg17
g5
sg18
g14
sg19
g5
sg20
g5
sg21
g5
sg22
g5
sg23
F27942.0
sg24
g14
sg25
g14
sg26
I101250
sg27
g14
sg28
g14
sg39
g14
sg40
g5
sg41
g5
sg42
g5
sg43
g5
sg44
g14
sg48
g5
sg49
g5
sg50
I27942
sg51
g14
sg52
g14
sg56
g5
sg57
g14
sg61
g14
ssS'STABLER FRANK'
p953
(dp954
g3
g5
sg4
g5
sg6
I16514
sg7
F0.03466634655887055
sg8
I00
sg9
g5
sg10
S'frank.stabler@enron.com'
p955
sg12
g5
sg13
g14
sg15
F0.012113978278479223
sg16
F0.0721882472252943
sg17
g5
sg18
g14
sg19
g5
sg20
g5
sg21
g5
sg22
I356071
sg23
F2363323.0
sg24
g14
sg25
g14
sg26
g5
sg27
F0.03437068672356198
sg28
g14
sg39
g14
sg40
I500000
sg41
I511734
sg42
g5
sg43
g5
sg44
g14
sg48
I511734
sg49
I239502
sg50
I1112087
sg51
g14
sg52
g14
sg56
g5
sg57
g14
sg61
g14
ssS'SKILLING JEFFREY K'
p956
(dp957
g3
I3627
sg4
g5
sg6
I29336
sg7
F0.4636102062541061
sg8
I01
sg9
g5
sg10
S'jeff.skilling@enron.com'
p958
sg12
I1920000
sg13
g14
sg15
F0.3113304970712681
sg16
F0.1282375209277724
sg17
g5
sg18
g14
sg19
I2042
sg20
g5
sg21
I108
sg22
I22122
sg23
F60737646.0
sg24
F0.2777777777777778
sg25
g14
sg26
g5
sg27
F0.00213538404334708
sg28
g29
(g33
S'\x1f9\xdbLM\xe4\xe5?'
p959
tp960
Rp961
sg39
F0.007516703786191537
sg40
I5600000
sg41
I26093672
sg42
I88
sg43
I30
sg44
g29
(g33
S'\x04C\xdc=\xed\x8a\xd7?'
p962
tp963
Rp964
sg48
I6843672
sg49
I1111258
sg50
I8682716
sg51
F0.37314636627347664
sg52
g29
(g33
S' )\xaa\x9b\xd5\ru?'
p965
tp966
Rp967
sg56
I19250000
sg57
g29
(g33
S'\xe4\xb1\x0e8\xcd\xd6o?'
p968
tp969
Rp970
sg61
F0.2777777777777778
ssS'BLAKE JR. NORMAN P'
p971
(dp972
g3
g5
sg4
g5
sg6
I1279
sg7
g14
sg8
I00
sg9
I-113784
sg10
g5
sg12
g5
sg13
F136.59543817527012
sg15
F6.555929180300334e-06
sg16
F0.005590939094171697
sg17
g5
sg18
g14
sg19
g5
sg20
g5
sg21
g5
sg22
g5
sg23
F1279.0
sg24
g14
sg25
g14
sg26
I113784
sg27
g14
sg28
g14
sg39
g14
sg40
g5
sg41
g5
sg42
g5
sg43
g5
sg44
g14
sg48
g5
sg49
g5
sg50
I1279
sg51
g14
sg52
g14
sg56
g5
sg57
g14
sg61
g14
ssS'SHERRICK JEFFREY B'
p973
(dp974
g3
I613
sg4
g5
sg6
g5
sg7
F0.027503550744243852
sg8
I00
sg9
g5
sg10
S'jeffrey.sherrick@enron.com'
p975
sg12
g5
sg13
g14
sg15
F0.016704738213495253
sg16
g14
sg17
g5
sg18
g14
sg19
I583
sg20
g5
sg21
I25
sg22
g5
sg23
F3258937.0
sg24
F0.72
sg25
g14
sg26
g5
sg27
g14
sg28
g29
(g33
S'ZK\x86=\xe8%\xb1?'
p976
tp977
Rp978
sg39
F0.001739977728285078
sg40
g5
sg41
I1832468
sg42
I39
sg43
I18
sg44
g29
(g33
S"4'\x8f\x13\x11\xf5\xee?"
p979
tp980
Rp981
sg48
I405999
sg49
g5
sg50
g5
sg51
g14
sg52
g29
(g33
S'e\xa8N\x92S\xaf\x8b?'
p982
tp983
Rp984
sg56
I1426469
sg57
g29
(g33
S'HF\xc4C\x9b\xf08?'
p985
tp986
Rp987
sg61
F0.72
ssS'PRENTICE JAMES'
p988
(dp989
g3
g5
sg4
I564348
sg6
g5
sg7
F0.01414532776522803
sg8
I00
sg9
g5
sg10
S'james.prentice@enron.com'
p990
sg12
g5
sg13
g14
sg15
F0.013048395530904578
sg16
g14
sg17
g5
sg18
F0.0878090676973202
sg19
g5
sg20
g5
sg21
g5
sg22
g5
sg23
F2545619.0
sg24
g14
sg25
g14
sg26
g5
sg27
g14
sg28
g14
sg39
g14
sg40
g5
sg41
I1095040
sg42
g5
sg43
g5
sg44
g14
sg48
I208809
sg49
g5
sg50
I564348
sg51
g14
sg52
g14
sg56
I886231
sg57
g14
sg61
g14
ssS'GRAY RODNEY'
p991
(dp992
g3
g5
sg4
I93585
sg6
g5
sg7
g14
sg8
I00
sg9
g5
sg10
g5
sg12
I365625
sg13
g14
sg15
F0.005911474678305322
sg16
g14
sg17
g5
sg18
F0.014561248733855194
sg19
g5
sg20
g5
sg21
g5
sg22
I680833
sg23
F1153273.0
sg24
g14
sg25
g14
sg26
g5
sg27
F0.06571919014483874
sg28
g14
sg39
g14
sg40
g5
sg41
g5
sg42
g5
sg43
g5
sg44
g14
sg48
g5
sg49
I6615
sg50
I1146658
sg51
F0.0710581459212187
sg52
g14
sg56
g5
sg57
g14
sg61
g14
ssS'THE TRAVEL AGENCY IN THE PARK'
p993
(dp994
g3
g5
sg4
g5
sg6
g5
sg7
g14
sg8
I00
sg9
g5
sg10
g5
sg12
g5
sg13
g14
sg15
F0.001856040447591892
sg16
g14
sg17
g5
sg18
g14
sg19
g5
sg20
g5
sg21
g5
sg22
I362096
sg23
F362096.0
sg24
g14
sg25
g14
sg26
g5
sg27
F0.03495226564324221
sg28
g14
sg39
g14
sg40
g5
sg41
g5
sg42
g5
sg43
g5
sg44
g14
sg48
g5
sg49
g5
sg50
I362096
sg51
g14
sg52
g14
sg56
g5
sg57
g14
sg61
g14
ssS'UMANOFF ADAM S'
p995
(dp996
g3
I111
sg4
g5
sg6
I53122
sg7
g14
sg8
I00
sg9
g5
sg10
S'adam.umanoff@enron.com'
p997
sg12
g5
sg13
g14
sg15
F0.011316794717957058
sg16
F0.2322141255360351
sg17
g5
sg18
g14
sg19
I41
sg20
g5
sg21
I18
sg22
g5
sg23
F2207800.0
sg24
F0.0
sg25
g14
sg26
g5
sg27
g14
sg28
g29
(g33
S'\x93W\xc1\xd8\xb5r\xd6?'
p998
tp999
Rp1000
sg39
F0.0012527839643652562
sg40
I788750
sg41
g5
sg42
I12
sg43
I0
sg44
g29
(g33
S'\x87\x027\r\xa0\xb4\xca?'
p1001
tp1002
Rp1003
sg48
g5
sg49
I288589
sg50
I1130461
sg51
g14
sg52
g29
(g33
S'\x0f@\x8e\t\xf1\xe1g?'
p1004
tp1005
Rp1006
sg56
g5
sg57
g29
(g33
S'\xb7\x12-\x80\xf5R`?'
p1007
tp1008
Rp1009
sg61
F0.0
ssS'KEAN STEVEN J'
p1010
(dp1011
g3
I12754
sg4
g5
sg6
I41953
sg7
F0.2798861702457726
sg8
I00
sg9
g5
sg10
S'steven.kean@enron.com'
p1012
sg12
I300000
sg13
g14
sg15
F0.05806303016912513
sg16
F0.18339067069412449
sg17
g5
sg18
g14
sg19
I3639
sg20
g5
sg21
I6759
sg22
I1231
sg23
F11327550.0
sg24
F0.05725699067909454
sg25
g14
sg26
g5
sg27
F0.00011882550209566293
sg28
g29
(g33
S'\xa6\xfda\x89\xee\xcf\xc4\xbf'
p1013
tp1014
Rp1015
sg39
F0.4704203786191537
sg40
I1000000
sg41
I6153642
sg42
I140
sg43
I387
sg44
g29
(g33
S"y_'\xc0\xf2\x9b\xcd\xbf"
p1016
tp1017
Rp1018
sg48
I4131594
sg49
I404338
sg50
I1747522
sg51
F0.058304119730230725
sg52
g29
(g33
S'l\xb3G\x8d\xb0zj\xbf'
p1019
tp1020
Rp1021
sg56
I2022048
sg57
g29
(g33
S"'\xdbc\x82\xdaDN\xbf"
p1022
tp1023
Rp1024
sg61
F0.05725699067909454
ssS'FOWLER PEGGY'
p1025
(dp1026
g3
I517
sg4
g5
sg6
g5
sg7
F0.037947541792967665
sg8
I00
sg9
g5
sg10
S'kulvinder.fowler@enron.com'
p1027
sg12
g5
sg13
g14
sg15
F0.016450440948003558
sg16
g14
sg17
g5
sg18
g14
sg19
I10
sg20
g5
sg21
I36
sg22
g5
sg23
F3209326.0
sg24
F0.0
sg25
g14
sg26
g5
sg27
g14
sg28
g29
(g33
S'\x9b\x98\xca6\xe2\xa2\xe1\xbf'
p1028
tp1029
Rp1030
sg39
F0.0025055679287305124
sg40
g5
sg41
I1884748
sg42
I0
sg43
I0
sg44
g29
(g33
S'\xdc\x04\xd2d\xa2\xc3\xdd\xbf'
p1031
tp1032
Rp1033
sg48
I560170
sg49
g5
sg50
g5
sg51
g14
sg52
g29
(g33
S'\xbf\xfe4>.\x9ez\xbf'
p1034
tp1035
Rp1036
sg56
I1324578
sg57
g29
(g33
S'\x96;\xcb\xc1^\xa6i\xbf'
p1037
tp1038
Rp1039
sg61
F0.0
ssS'WASAFF GEORGE'
p1040
(dp1041
g3
I400
sg4
I831299
sg6
g5
sg7
F0.02629555930369509
sg8
I00
sg9
I-583325
sg10
S'george.wasaff@enron.com'
p1042
sg12
I200000
sg13
F700.2701080432173
sg15
F0.027392804458171265
sg16
g14
sg17
g5
sg18
F0.12934499664695293
sg19
I337
sg20
g5
sg21
I30
sg22
I1425
sg23
F5344078.0
sg24
F0.23333333333333334
sg25
g14
sg26
g5
sg27
F0.00013755186067125887
sg28
g29
(g33
S'`\x9eD\xfe\x1aQ\xa9\xbf'
p1043
tp1044
Rp1045
sg39
F0.0020879732739420937
sg40
I325000
sg41
I2056427
sg42
I22
sg43
I7
sg44
g29
(g33
S'z\x17\xff\x7fbT\xb5\xbf'
p1046
tp1047
Rp1048
sg48
I388167
sg49
I259996
sg50
I1034395
sg51
F0.03886941315348715
sg52
g29
(g33
S'|?F&.\x13S\xbf'
p1049
tp1050
Rp1051
sg56
I1668260
sg57
g29
(g33
S'\xee:h?\x01i2\xbf'
p1052
tp1053
Rp1054
sg61
F0.23333333333333334
ssS'WHITE JR THOMAS E'
p1055
(dp1056
g3
g5
sg4
g5
sg6
I81353
sg7
F0.9380409863529213
sg8
I00
sg9
g5
sg10
S'thomas.white@enron.com'
p1057
sg12
g5
sg13
g14
sg15
F0.09812403239816156
sg16
F0.3556213198812745
sg17
g5
sg18
g14
sg19
g5
sg20
g5
sg21
g5
sg22
I1085463
sg23
F19143074.0
sg24
g14
sg25
g14
sg26
g5
sg27
F0.1047771616419696
sg28
g14
sg39
g14
sg40
I450000
sg41
I15144123
sg42
g5
sg43
g5
sg44
g14
sg48
I13847074
sg49
I317543
sg50
I1934359
sg51
g14
sg52
g14
sg56
I1297049
sg57
g14
sg61
g14
ssS'CHRISTODOULOU DIOMEDES'
p1058
(dp1059
g3
g5
sg4
g5
sg6
g5
sg7
F0.0644052098627705
sg8
I00
sg9
g5
sg10
S'diomedes.christodoulou@enron.com'
p1060
sg12
g5
sg13
g14
sg15
F0.05743506544365321
sg16
g14
sg17
g5
sg18
g14
sg19
g5
sg20
g5
sg21
g5
sg22
g5
sg23
F11205040.0
sg24
g14
sg25
g14
sg26
g5
sg27
g14
sg28
g14
sg39
g14
sg40
g5
sg41
I6077885
sg42
g5
sg43
g5
sg44
g14
sg48
I950730
sg49
g5
sg50
g5
sg51
g14
sg52
g14
sg56
I5127155
sg57
g14
sg61
g14
ssS'ALLEN PHILLIP K'
p1061
(dp1062
g3
I2902
sg4
I2869717
sg6
I13868
sg7
F0.0085374347957626
sg8
I00
sg9
I-3081055
sg10
S'phillip.allen@enron.com'
p1063
sg12
I304805
sg13
F3698.7454981992796
sg15
F0.06315260968833267
sg16
F0.06062169144485778
sg17
I-126027
sg18
F0.446510263747104
sg19
I1407
sg20
g5
sg21
I2195
sg22
I152
sg23
F12320479.0
sg24
F0.029612756264236904
sg25
F-0.008153767818797395
sg26
g5
sg27
F1.4672198471600946e-05
sg28
g29
(g33
S'ZK\x86=\xe8%\xb1?'
p1064
tp1065
Rp1066
sg39
F0.15277004454342985
sg40
I4175000
sg41
I1729541
sg42
I47
sg43
I65
sg44
g29
(g33
S'\x1b\xd90p\xa7W\xe1\xbf'
p1067
tp1068
Rp1069
sg48
I126027
sg49
I201955
sg50
I4484442
sg51
F0.05923795738124325
sg52
g29
(g33
S'\x87v\xcc}\xb2\x04\x7f\xbf'
p1070
tp1071
Rp1072
sg56
I1729541
sg57
g29
(g33
S'HF\xc4C\x9b\xf08?'
p1073
tp1074
Rp1075
sg61
F0.029612756264236904
ssS'SHARP VICTORIA T'
p1076
(dp1077
g3
I3136
sg4
I187469
sg6
I116337
sg7
F0.014433506073218968
sg8
I00
sg9
g5
sg10
S'vicki.sharp@enron.com'
p1078
sg12
I422158
sg13
g14
sg15
F0.016401950650860756
sg16
F0.5085481480833877
sg17
g5
sg18
F0.029169020023370195
sg19
I2477
sg20
g5
sg21
I136
sg22
I2401
sg23
F3199866.0
sg24
F0.04411764705882353
sg25
g14
sg26
g5
sg27
F0.00023176281927838073
sg28
g29
(g33
S'x\xe1Z\x9f\x19E\xbc\xbf'
p1079
tp1080
Rp1081
sg39
F0.009465478841870824
sg40
I600000
sg41
I494136
sg42
I24
sg43
I6
sg44
g29
(g33
S'\xb4\xff\x05\xbc\x1f\xc3\xb1\xbf'
p1082
tp1083
Rp1084
sg48
I213063
sg49
I248146
sg50
I1576511
sg51
F0.08204516859024914
sg52
g29
(g33
S'\x00\xe7\x1d\x90\xea\xc4O\xbf'
p1085
tp1086
Rp1087
sg56
I281073
sg57
g29
(g33
S'N\x18\xd2\xfc\xc1\x8eD\xbf'
p1088
tp1089
Rp1090
sg61
F0.04411764705882353
ssS'JAEDICKE ROBERT'
p1091
(dp1092
g3
g5
sg4
g5
sg6
g5
sg7
F0.0029869878077678617
sg8
I00
sg9
I-25000
sg10
g5
sg12
g5
sg13
F30.012004801920767
sg15
F0.004855436994557851
sg16
g14
sg17
I-44093
sg18
g14
sg19
g5
sg20
g5
sg21
g5
sg22
g5
sg23
F947250.0
sg24
g14
sg25
F-0.0028527544449541255
sg26
I108750
sg27
g14
sg28
g14
sg39
g14
sg40
g5
sg41
I431750
sg42
g5
sg43
g5
sg44
g14
sg48
I44093
sg49
g5
sg50
I83750
sg51
g14
sg52
g14
sg56
I431750
sg57
g14
sg61
g14
ssS'WINOKUR JR. HERBERT S'
p1093
(dp1094
g3
g5
sg4
g5
sg6
I1413
sg7
g14
sg8
I00
sg9
I-25000
sg10
g5
sg12
g5
sg13
F30.012004801920767
sg15
F0.0004356540523003018
sg16
F0.0061766981548589586
sg17
g5
sg18
g14
sg19
g5
sg20
g5
sg21
g5
sg22
g5
sg23
F84992.0
sg24
g14
sg25
g14
sg26
I108579
sg27
g14
sg28
g14
sg39
g14
sg40
g5
sg41
g5
sg42
g5
sg43
g5
sg44
g14
sg48
g5
sg49
g5
sg50
I84992
sg51
g14
sg52
g14
sg56
g5
sg57
g14
sg61
g14
ssS'BROWN MICHAEL'
p1095
(dp1096
g3
I1486
sg4
g5
sg6
I49288
sg7
g14
sg8
I00
sg9
g5
sg10
S'michael.brown@enron.com'
p1097
sg12
g5
sg13
g14
sg15
F0.00025264162426789905
sg16
F0.21545442226234138
sg17
g5
sg18
g14
sg19
I761
sg20
g5
sg21
I41
sg22
g5
sg23
F49288.0
sg24
F0.024390243902439025
sg25
g14
sg26
g5
sg27
g14
sg28
g29
(g33
S'\x10\xb8)\x8b\xd4{\xae\xbf'
p1098
tp1099
Rp1100
sg39
F0.002853563474387528
sg40
g5
sg41
g5
sg42
I13
sg43
I1
sg44
g29
(g33
S'v\xc8ej\x18\xb1\xbf\xbf'
p1101
tp1102
Rp1103
sg48
g5
sg49
g5
sg50
I49288
sg51
g14
sg52
g29
(g33
S'\xae\x05\xfd\xa2zW\\\xbf'
p1104
tp1105
Rp1106
sg56
g5
sg57
g29
(g33
S'\\\xe2x\x0e\xe1*6\xbf'
p1107
tp1108
Rp1109
sg61
F0.024390243902439025
ssS'MCCLELLAN GEORGE'
p1110
(dp1111
g3
I1744
sg4
g5
sg6
I228763
sg7
F0.02988112339952312
sg8
I00
sg9
I-125000
sg10
S'george.mcclellan@enron.com'
p1112
sg12
g5
sg13
F150.06002400960384
sg15
F0.02017935504993332
sg16
F1.0
sg17
g5
sg18
g14
sg19
I1469
sg20
g5
sg21
I49
sg22
I51587
sg23
F3936802.0
sg24
F0.0
sg25
g14
sg26
g5
sg27
F0.0049795704115426186
sg28
g29
(g33
S'\xcde\x10$\xe2\x1e\x87?'
p1113
tp1114
Rp1115
sg39
F0.003410356347438753
sg40
I900000
sg41
I947861
sg42
I52
sg43
I0
sg44
g29
(g33
S')\x92\xfc\x92GG\xc6\xbf'
p1116
tp1117
Rp1118
sg48
I441096
sg49
I263413
sg50
I1318763
sg51
g14
sg52
g29
(g33
S'\x9e\xc665f\xecc\xbf'
p1119
tp1120
Rp1121
sg56
I506765
sg57
g29
(g33
S'z\xf7ah)\xd0\x10?'
p1122
tp1123
Rp1124
sg61
F0.0
ssS'HUGHES JAMES A'
p1125
(dp1126
g3
I719
sg4
g5
sg6
g5
sg7
F0.02461966763435145
sg8
I00
sg9
g5
sg10
S'james.hughes@enron.com'
p1127
sg12
g5
sg13
g14
sg15
F0.009602514065056633
sg16
g14
sg17
g5
sg18
g14
sg19
I589
sg20
g5
sg21
I34
sg22
g5
sg23
F1873360.0
sg24
F0.14705882352941177
sg25
g14
sg26
g5
sg27
g14
sg28
g29
(g33
S'\xd0e\x10$\xe2\x1e\x87?'
p1128
tp1129
Rp1130
sg39
F0.002366369710467706
sg40
g5
sg41
I1118394
sg42
I35
sg43
I5
sg44
g29
(g33
S'\xc3\xb6.1\xb5k\xdb?'
p1131
tp1132
Rp1133
sg48
I363428
sg49
g5
sg50
g5
sg51
g14
sg52
g29
(g33
S'\xf1L,\xc0\xab\x85x?'
p1134
tp1135
Rp1136
sg56
I754966
sg57
g29
(g33
S'|\xf7ah)\xd0\x10?'
p1137
tp1138
Rp1139
sg61
F0.14705882352941177
ssS'REYNOLDS LAWRENCE'
p1140
(dp1141
g3
g5
sg4
I51365
sg6
I8409
sg7
F0.013649043260211192
sg8
I00
sg9
I-200000
sg10
g5
sg12
I156250
sg13
F240.09603841536614
sg15
F0.045893744247287475
sg16
F0.03675856672626255
sg17
I-140264
sg18
F0.007992077162092987
sg19
g5
sg20
g5
sg21
g5
sg22
I202052
sg23
F8953437.0
sg24
g14
sg25
F-0.009074881488377871
sg26
g5
sg27
F0.0195035989841047
sg28
g14
sg39
g14
sg40
I100000
sg41
I4221891
sg42
g5
sg43
g5
sg44
g14
sg48
I201483
sg49
I76399
sg50
I394475
sg51
F0.030366729026161835
sg52
g14
sg56
I4160672
sg57
g14
sg61
g14
ssS'PICKERING MARK R'
p1142
(dp1143
g3
I898
sg4
g5
sg6
I31653
sg7
g14
sg8
I00
sg9
g5
sg10
S'mark.pickering@enron.com'
p1144
sg12
g5
sg13
g14
sg15
F0.012298507950481421
sg16
F0.1383659070741335
sg17
g5
sg18
g14
sg19
I728
sg20
I400000
sg21
I67
sg22
g5
sg23
F2399323.0
sg24
F0.0
sg25
g14
sg26
g5
sg27
g14
sg28
g29
(g33
S'C\xf7F\\s\xc3\xc6\xbf'
p1145
tp1146
Rp1147
sg39
F0.004663140311804009
sg40
I300000
sg41
I28798
sg42
I7
sg43
I0
sg44
g29
(g33
S'N\x87\xfaj\x822\xea\xbf'
p1148
tp1149
Rp1150
sg48
g5
sg49
I655037
sg50
I1386690
sg51
g14
sg52
g29
(g33
S'\xd3\x0c\xad|\x94m\x87\xbf'
p1151
tp1152
Rp1153
sg56
I28798
sg57
g29
(g33
S'\xf6\xb3\x172\xac\x8dP\xbf'
p1154
tp1155
Rp1156
sg61
F0.0
ssS'BHATNAGAR SANJAY'
p1157
(dp1158
g3
I523
sg4
g5
sg6
g5
sg7
F-0.17643571259504498
sg8
I00
sg9
g5
sg10
S'sanjay.bhatnagar@enron.com'
p1159
sg12
g5
sg13
g14
sg15
F0.09257638359732968
sg16
g14
sg17
I15456290
sg18
g14
sg19
I463
sg20
g5
sg21
I29
sg22
I137864
sg23
F18060780.0
sg24
F0.034482758620689655
sg25
F1.0
sg26
I137864
sg27
F0.013307684013742058
sg28
g29
(g33
S'\x88\xacD\x96\xa9\xea\x91\xbf'
p1160
tp1161
Rp1162
sg39
F0.0020183741648106906
sg40
g5
sS'total_stock_value'
p1163
S'NaN'
p1164
sg42
I0
sg43
I1
sg44
g29
(g33
S'Q\xe6\xdedV]\xe4?'
p1165
tp1166
Rp1167
sg48
I-2604490
sg49
g5
sg50
I15456290
sg51
g14
sg52
g29
(g33
S'Y\xbf\x12n?6\x82?'
p1168
tp1169
Rp1170
sg56
I2604490
sg57
g29
(g33
S'X\xf1h\x96\xc3\x0e\x1a\xbf'
p1171
tp1172
Rp1173
sg61
F0.034482758620689655
ssS'CARTER REBECCA C'
p1174
(dp1175
g3
I312
sg4
g5
sg6
g5
sg7
F0.020817461735760136
sg8
I00
sg9
I-159792
sg10
S'rebecca.carter@enron.com'
p1176
sg12
I75000
sg13
F191.82713085234093
sg15
F0.0053276074186176985
sg16
g14
sg17
I-307301
sg18
g14
sg19
I196
sg20
g5
sg21
I15
sg22
I540
sg23
F1039366.0
sg24
F0.4666666666666667
sg25
F-0.01988193803299498
sg26
g5
sg27
F5.2124915622792834e-05
sg28
g29
(g33
S'ZK\x86=\xe8%\xb1?'
p1177
tp1178
Rp1179
sg39
F0.0010439866369710469
sg40
I300000
sg41
g5
sg42
I29
sg43
I7
sg44
g29
(g33
S'5\x03\x11+\x1c\xa2\xbe\xbf'
p1180
tp1181
Rp1182
sg48
I307301
sg49
I261809
sg50
I477557
sg51
F0.014576029932557681
sg52
g29
(g33
S'\x8a\xe53\x91#e[\xbf'
p1183
tp1184
Rp1185
sg56
g5
sg57
g29
(g33
S'HF\xc4C\x9b\xf08?'
p1186
tp1187
Rp1188
sg61
F0.4666666666666667
ssS'BUCHANAN HAROLD G'
p1189
(dp1190
g3
I1088
sg4
g5
sg6
I600
sg7
F0.012806186065095239
sg8
I00
sg9
g5
sg10
S'john.buchanan@enron.com'
p1191
sg12
I304805
sg13
g14
sg15
F0.01867144520604624
sg16
F0.00262280176427132
sg17
g5
sg18
g14
sg19
I23
sg20
g5
sg21
I125
sg22
I1215
sg23
F3642623.0
sg24
F0.0
sg25
g14
sg26
g5
sg27
F0.00011728106015128387
sg28
g29
(g33
S'\xe7\xbfOLi\x9d\xdf\xbf'
p1192
tp1193
Rp1194
sg39
F0.00869988864142539
sg40
I500000
sg41
I1014505
sg42
I0
sg43
I0
sg44
g29
(g33
S'\x103D\xd0\xe9\x96\xe3\xbf'
p1195
tp1196
Rp1197
sg48
I189041
sg49
I248017
sg50
I1054637
sg51
F0.05923795738124325
sg52
g29
(g33
S'\xfc\x85\xe7o\xcc\x84\x81\xbf'
p1198
tp1199
Rp1200
sg56
I825464
sg57
g29
(g33
S't\xb15\xc4u\xfdf\xbf'
p1201
tp1202
Rp1203
sg61
F0.0
ssS'YEAP SOON'
p1204
(dp1205
g3
g5
sg4
g5
sg6
I55097
sg7
g14
sg8
I00
sg9
g5
sg10
g5
sg12
g5
sg13
g14
sg15
F0.0022585047880529095
sg16
F0.24084751467676155
sg17
g5
sg18
g14
sg19
g5
sg20
g5
sg21
g5
sg22
g5
sg23
F440613.0
sg24
g14
sg25
g14
sg26
g5
sg27
g14
sg28
g14
sg39
g14
sg40
g5
sg41
I192758
sg42
g5
sg43
g5
sg44
g14
sg48
g5
sg49
g5
sg50
I55097
sg51
g14
sg52
g14
sg56
I192758
sg57
g14
sg61
g14
ssS'MURRAY JULIA H'
p1206
(dp1207
g3
I2192
sg4
g5
sg6
I57580
sg7
F0.01334420019816154
sg8
I00
sg9
g5
sg10
S'julia.murray@enron.com'
p1208
sg12
I125000
sg13
g14
sg15
F0.012504022746849648
sg16
F0.251701542644571
sg17
g5
sg18
g14
sg19
I395
sg20
g5
sg21
I45
sg22
I330
sg23
F2439417.0
sg24
F0.044444444444444446
sg25
g14
sg26
g5
sg27
F3.1854115102817845e-05
sg28
g29
(g33
S'\xc6\xd6!\xfc\xcc\x9c\xf0\xbf'
p1209
tp1210
Rp1211
sg39
F0.00313195991091314
sg40
I400000
sg41
I597461
sg42
I11
sg43
I2
sg44
g29
(g33
S'\x0fw\x1c\xf1\xbcY\xe3\xbf'
p1212
tp1213
Rp1214
sg48
I196983
sg49
I229284
sg50
I812194
sg51
F0.024293383220929467
sg52
g29
(g33
S'\xa8\r\x1e\n\x17N\x81\xbf'
p1215
tp1216
Rp1217
sg56
I400478
sg57
g29
(g33
S'.{\xdc\x803)x\xbf'
p1218
tp1219
Rp1220
sg61
F0.044444444444444446
ssS'GARLAND C KEVIN'
p1221
(dp1222
g3
I209
sg4
g5
sg6
I48405
sg7
F0.017606854606253185
sg8
I00
sg9
g5
sg10
S'kevin.garland@enron.com'
p1223
sg12
I375304
sg13
g14
sg15
F0.02143011767006111
sg16
F0.21159453233258874
sg17
g5
sg18
g14
sg19
I178
sg20
g5
sg21
I44
sg22
I60814
sg23
F4180814.0
sg24
F0.6136363636363636
sg25
g14
sg26
g5
sg27
F0.00587023077534171
sg28
g29
(g33
S'\x83\xa6\xb9\xa2?\xd4\xc0?'
p1224
tp1225
Rp1226
sg39
F0.003062360801781737
sg40
I850000
sg41
I896153
sg42
I10
sg43
I27
sg44
g29
(g33
S't\xf5<\x99\xbf\x1d\xe6?'
p1227
tp1228
Rp1229
sg48
I259907
sg49
I231946
sg50
I1566469
sg51
F0.0729392311707817
sg52
g29
(g33
S'x\x1e\x11\x1dB\xc7\x83?'
p1230
tp1231
Rp1232
sg56
I636246
sg57
g29
(g33
S'\xc7\x80e\xf6\xd7yH?'
p1233
tp1234
Rp1235
sg61
F0.6136363636363636
ssS'DODSON KEITH'
p1236
(dp1237
g3
I176
sg4
g5
sg6
I28164
sg7
g14
sg8
I00
sg9
g5
sg10
S'keith.dodson@enron.com'
p1238
sg12
g5
sg13
g14
sg15
F0.0031315915536586454
sg16
F0.12311431481489576
sg17
g5
sg18
g14
sg19
I114
sg20
g5
sg21
I14
sg22
I774
sg23
F610944.0
sg24
F0.21428571428571427
sg25
g14
sg26
g5
sg27
F7.47123790593364e-05
sg28
g29
(g33
S'o\x0e|\x86=\xf9\xd6\xbf'
p1239
tp1240
Rp1241
sg39
F0.0009743875278396437
sg40
I70000
sg41
g5
sg42
I10
sg43
I3
sg44
g29
(g33
S'v\xce\x00O;.\xdb?'
p1242
tp1243
Rp1244
sg48
g5
sg49
I221003
sg50
I319941
sg51
g14
sg52
g29
(g33
S'\xa7\x18d{\xb1Nx?'
p1245
tp1246
Rp1247
sg56
g5
sg57
g29
(g33
S'\xdd\xe6!\xbe\xc9\xb4`\xbf'
p1248
tp1249
Rp1250
sg61
F0.21428571428571427
ssS'YEAGER F SCOTT'
p1251
(dp1252
g3
g5
sg4
g5
sg6
I53947
sg7
F0.2422625750134097
sg8
I01
sg9
g5
sg10
S'scott.yeager@enron.com'
p1253
sg12
g5
sg13
g14
sg15
F0.1061661379276465
sg16
F0.23582047796190816
sg17
g5
sg18
g14
sg19
g5
sg20
g5
sg21
g5
sg22
I147950
sg23
F20712013.0
sg24
g14
sg25
g14
sg26
g5
sg27
F0.01428126160443
sg28
g14
sg39
g14
sg40
g5
sg41
I11884758
sg42
g5
sg43
g5
sg44
g14
sg48
I3576206
sg49
I158403
sg50
I360300
sg51
g14
sg52
g14
sg56
I8308552
sg57
g14
sg61
g14
ssS'HIRKO JOSEPH'
p1254
(dp1255
g3
g5
sg4
I10259
sg6
I77978
sg7
g14
sg8
I01
sg9
g5
sg10
S'joe.hirko@enron.com'
p1256
sg12
g5
sg13
g14
sg15
F0.3158697988569166
sg16
F0.34086805995724834
sg17
g5
sg18
F0.0015962371187756633
sg19
g5
sg20
g5
sg21
g5
sg22
I2856
sg23
F61623221.0
sg24
g14
sg25
g14
sg26
g5
sg27
F0.0002756828870716599
sg28
g14
sg39
g14
sg40
g5
sg41
I30766064
sg42
g5
sg43
g5
sg44
g14
sg48
g5
sg49
g5
sg50
I91093
sg51
g14
sg52
g14
sg56
I30766064
sg57
g14
sg61
g14
ssS'DIETRICH JANET R'
p1257
(dp1258
g3
I2572
sg4
g5
sg6
I3475
sg7
F0.02134362086085784
sg8
I00
sg9
g5
sg10
S'janet.dietrich@enron.com'
p1259
sg12
I556416
sg13
g14
sg15
F0.02909248676368663
sg16
F0.015190393551404729
sg17
g5
sg18
g14
sg19
I1902
sg20
g5
sg21
I63
sg22
I473
sg23
F5675670.0
sg24
F0.2222222222222222
sg25
g14
sg26
g5
sg27
F4.565756498070558e-05
sg28
g29
(g33
S'\xe9g\x1d\xb6\xb81\xd6\xbf'
p1260
tp1261
Rp1262
sg39
F0.004384743875278397
sg40
I600000
sg41
I1865087
sg42
I305
sg43
I14
sg44
g29
(g33
S'B\xf9\x1e\xb3\x05N\xca?'
p1263
tp1264
Rp1265
sg48
I315068
sg49
I250100
sg50
I1410464
sg51
F0.10813781694605352
sg52
g29
(g33
S'\xfa\xb9o=/\x86g?'
p1266
tp1267
Rp1268
sg56
I1550019
sg57
g29
(g33
S'\xd40\xf9\x1d\xb3#`\xbf'
p1269
tp1270
Rp1271
sg61
F0.2222222222222222
ssS'DERRICK JR. JAMES V'
p1272
(dp1273
g3
I2181
sg4
g5
sg6
I51124
sg7
F0.12108230938806888
sg8
I00
sg9
I-1284000
sg10
S'james.derrick@enron.com'
p1274
sg12
I484000
sg13
F1541.4165666266506
sg15
F0.09999038600408869
sg16
F0.22348019566101163
sg17
I-1787380
sg18
g14
sg19
I1401
sg20
g5
sg21
I909
sg22
I7482
sg23
F19507182.0
sg24
F0.022002200220022004
sg25
F-0.11564094617789909
sg26
g5
sg27
F0.0007222196642402519
sg28
g29
(g33
S'\x01l\x12\xa5\xe2\x06\xef\xbf'
p1275
tp1276
Rp1277
sg39
F0.06326559020044543
sg40
I800000
sg41
I8831913
sg42
I64
sg43
I20
sg44
g29
(g33
S'\x06z\xea$\xa0\x8f\xe4\xbf'
p1278
tp1279
Rp1280
sg48
I1787380
sg49
I492375
sg50
I550981
sg51
F0.09406397983143891
sg52
g29
(g33
S'\xa3}~S8c\x82\xbf'
p1281
tp1282
Rp1283
sg56
I8831913
sg57
g29
(g33
S'V\xca\x90\xb1\xff\x8fv\xbf'
p1284
tp1285
Rp1286
sg61
F0.022002200220022004
ssS'FREVERT MARK A'
p1287
(dp1288
g3
I3275
sg4
I6426990
sg6
I86987
sg7
F0.28375246093029705
sg8
I00
sg9
I-3367011
sg10
S'mark.frevert@enron.com'
p1289
sg12
I1617011
sg13
F4042.030012004802
sg15
F0.23255436490176748
sg16
F0.3802494284477822
sg17
g5
sg18
F1.0
sg19
I2979
sg20
I2000000
sg21
I21
sg22
I7427621
sg23
F45369165.0
sg24
F0.2857142857142857
sg25
g14
sg26
g5
sg27
F0.7169705887094151
sg28
g29
(g33
S'\x139F.\xa6\x07\xf5\xbf'
p1290
tp1291
Rp1292
sg39
F0.0014615812917594655
sg40
I2000000
sg41
I14622185
sg42
I242
sg43
I6
sg44
g29
(g33
S'\xaf\xdaf3\x8d8\x91?'
p1293
tp1294
Rp1295
sg48
I4188667
sg49
I1060932
sg50
I17252530
sg51
F0.31426134316366705
sg52
g29
(g33
S'\x94p\xffZ\x11\xcd.?'
p1296
tp1297
Rp1298
sg56
I10433518
sg57
g29
(g33
S"g'\xacO\xe3\x95~\xbf"
p1299
tp1300
Rp1301
sg61
F0.2857142857142857
ssS'PAI LOU L'
p1302
(dp1303
g3
g5
sg4
g5
sg6
I32047
sg7
F0.572682444169348
sg8
I00
sg9
g5
sg10
S'lou.pai@enron.com'
p1304
sg12
g5
sg13
g14
sg15
F0.2233186240631121
sg16
F0.14008821356600498
sg17
g5
sg18
g14
sg19
g5
sg20
g5
sg21
g5
sg22
I1829457
sg23
F43567359.0
sg24
g14
sg25
g14
sg26
g5
sg27
F0.17659313288986614
sg28
g14
sg39
g14
sg40
I1000000
sg41
I23817930
sg42
g5
sg43
g5
sg44
g14
sg48
I8453763
sg49
I261879
sg50
I3123383
sg51
g14
sg52
g14
sg56
I15364167
sg57
g14
sg61
g14
ssS'HAYSLETT RODERICK J'
p1305
(dp1306
g3
I2649
sg4
g5
sg6
g5
sg7
F0.023483957870959797
sg8
I00
sg9
g5
sg10
S'rod.hayslett@enron.com'
p1307
sg12
g5
sg13
g14
sg15
F0.0017769336023693938
sg16
g14
sg17
g5
sg18
g14
sg19
I571
sg20
g5
sg21
I1061
sg22
g5
sg23
F346663.0
sg24
F0.03581526861451461
sg25
g14
sg26
g5
sg27
g14
sg28
g29
(g33
S'\xd8\xbeC\xe8\xddW\xe1\xbf'
p1308
tp1309
Rp1310
sg39
F0.07384465478841871
sg40
g5
sg41
I346663
sg42
I35
sg43
I38
sg44
g29
(g33
S'\x08F\xf3T\xe0\x84\xf3\xbf'
p1311
tp1312
Rp1313
sg48
I346663
sg49
g5
sg50
g5
sg51
g14
sg52
g29
(g33
S'\xee\xde\x00\x0f\xabt\x91\xbf'
p1314
tp1315
Rp1316
sg56
g5
sg57
g29
(g33
S'C\xac\xd8VD9i\xbf'
p1317
tp1318
Rp1319
sg61
F0.03581526861451461
ssS'BAY FRANKLIN R'
p1320
(dp1321
g3
g5
sg4
I260455
sg6
I129142
sg7
F0.009876644238798067
sg8
I00
sg9
I-201641
sg10
S'frank.bay@enron.com'
p1322
sg12
g5
sg13
F242.06602641056423
sg15
F0.007844463999122132
sg16
F0.5645231090692113
sg17
I-82782
sg18
F0.04052519141931137
sg19
g5
sg20
g5
sg21
g5
sg22
I69
sg23
F1530381.0
sg24
g14
sg25
F-0.005355877768856563
sg26
g5
sg27
F6.66040588513464e-06
sg28
g14
sg39
g14
sg40
I400000
sg41
I63014
sg42
g5
sg43
g5
sg44
g14
sg48
I145796
sg49
I239671
sg50
I827696
sg51
g14
sg52
g14
sg56
g5
sg57
g14
sg61
g14
ssS'MCCARTY DANNY J'
p1323
(dp1324
g3
I1433
sg4
g5
sg6
g5
sg7
F0.006405497905592678
sg8
I00
sg9
g5
sg10
S'danny.mccarty@enron.com'
p1325
sg12
g5
sg13
g14
sg15
F0.007295616370521147
sg16
g14
sg17
g5
sg18
g14
sg19
I508
sg20
g5
sg21
I215
sg22
g5
sg23
F1423306.0
sg24
F0.009302325581395349
sg25
g14
sg26
g5
sg27
g14
sg28
g29
(g33
S'7.\xb34\xdb<\xdf\xbf'
p1326
tp1327
Rp1328
sg39
F0.01496380846325167
sg40
g5
sg41
I758931
sg42
I25
sg43
I2
sg44
g29
(g33
S'\xc5\xe5\x03\xf1\xa8\xd3\xe4\xbf'
p1329
tp1330
Rp1331
sg48
I94556
sg49
g5
sg50
g5
sg51
g14
sg52
g29
(g33
S'\xdbP\xd7\x08\x10\xa0\x82\xbf'
p1332
tp1333
Rp1334
sg56
I664375
sg57
g29
(g33
S'\x85\xce\xc3\xfa>\xb7f\xbf'
p1335
tp1336
Rp1337
sg61
F0.009302325581395349
ssS'FUGH JOHN L'
p1338
(dp1339
g3
g5
sg4
I50591
sg6
g5
sg7
g14
sg8
I00
sg9
g5
sg10
g5
sg12
g5
sg13
g14
sg15
F0.0020674858225853
sg16
g14
sg17
g5
sg18
F0.007871647536405067
sg19
g5
sg20
g5
sg21
g5
sg22
g5
sg23
F403347.0
sg24
g14
sg25
g14
sg26
g5
sg27
g14
sg28
g14
sg39
g14
sg40
g5
sg41
I176378
sg42
g5
sg43
g5
sg44
g14
sg48
g5
sg49
g5
sg50
I50591
sg51
g14
sg52
g14
sg56
I176378
sg57
g14
sg61
g14
ssS'SCRIMSHAW MATTHEW'
p1340
(dp1341
g3
g5
sg4
g5
sg6
g5
sg7
g14
sg8
I00
sg9
g5
sg10
S'matthew.scrimshaw@enron.com'
p1342
sg12
g5
sg13
g14
sg15
F0.007786711337609665
sg16
g14
sg17
g5
sg18
g14
sg19
g5
sg20
g5
sg21
g5
sg22
g5
sg23
F1519114.0
sg24
g14
sg25
g14
sg26
g5
sg27
g14
sg28
g14
sg39
g14
sg40
g5
sg41
I759557
sg42
g5
sg43
g5
sg44
g14
sg48
g5
sg49
g5
sg50
g5
sg51
g14
sg52
g14
sg56
I759557
sg57
g14
sg61
g14
ssS'KOENIG MARK E'
p1343
(dp1344
g3
I2374
sg4
g5
sg6
I127017
sg7
F0.08456468478482213
sg8
I01
sg9
g5
sg10
S'mark.koenig@enron.com'
p1345
sg12
I300000
sg13
g14
sg15
F0.02659871689547936
sg16
F0.5552340194874171
sg17
g5
sg18
g14
sg19
I2271
sg20
g5
sg21
I61
sg22
I150458
sg23
F5189159.0
sg24
F0.2459016393442623
sg25
g14
sg26
g5
sg27
F0.014523352879211415
sg28
g29
(g33
S'bA\x1e\xf6\x9e\x12\xd1\xbf'
p1346
tp1347
Rp1348
sg39
F0.00424554565701559
sg40
I700000
sg41
I1920055
sg42
I53
sg43
I15
sg44
g29
(g33
S'\xbe_1\x81`\xab\xd0?'
p1349
tp1350
Rp1351
sg48
I1248318
sg49
I309946
sg50
I1587421
sg51
F0.058304119730230725
sg52
g29
(g33
S'\x8bw\xf6\xa8\x90\xd0m?'
p1352
tp1353
Rp1354
sg56
I671737
sg57
g29
(g33
S'\xec\x1b\xee\x91\x8e\xd4X\xbf'
p1355
tp1356
Rp1357
sg61
F0.2459016393442623
ssS'SAVAGE FRANK'
p1358
(dp1359
g3
g5
sg4
g5
sg6
g5
sg7
g14
sg8
I00
sg9
I-121284
sg10
g5
sg12
g5
sg13
F145.59903961584635
sg15
F1.9221840833562354e-05
sg16
g14
sg17
g5
sg18
g14
sg19
g5
sg20
g5
sg21
g5
sg22
g5
sg23
F3750.0
sg24
g14
sg25
g14
sg26
I125034
sg27
g14
sg28
g14
sg39
g14
sg40
g5
sg41
g5
sg42
g5
sg43
g5
sg44
g14
sg48
g5
sg49
g5
sg50
I3750
sg51
g14
sg52
g14
sg56
g5
sg57
g14
sg61
g14
ssS'IZZO LAWRENCE L'
p1360
(dp1361
g3
I496
sg4
g5
sg6
I28093
sg7
F0.24758730264968234
sg8
I00
sg9
g5
sg10
S'larry.izzo@enron.com'
p1362
sg12
I312500
sg13
g14
sg15
F0.05151464620208
sg16
F0.122803949939457
sg17
g5
sg18
g14
sg19
I437
sg20
g5
sg21
I19
sg22
I1553729
sg23
F10050022.0
sg24
F0.2631578947368421
sg25
g14
sg26
g5
sg27
F0.149977764862382
sg28
g29
(g33
S'\xf6,\xf5\x97;/\xcb\xbf'
p1363
tp1364
Rp1365
sg39
F0.0013223830734966592
sg40
g5
sg41
I5819980
sg42
I28
sg43
I5
sg44
g29
(g33
S"\x81uV9'i\xdf?"
p1366
tp1367
Rp1368
sg48
I3654808
sg49
I85274
sg50
I1979596
sg51
F0.06073345805232367
sg52
g29
(g33
S'@\x95\x83H$\x17|?'
p1369
tp1370
Rp1371
sg56
I2165172
sg57
g29
(g33
S'm\x83\xeb\xec\xb1\xc4S\xbf'
p1372
tp1373
Rp1374
sg61
F0.2631578947368421
ssS'TILNEY ELIZABETH A'
p1375
(dp1376
g3
I460
sg4
g5
sg6
g5
sg7
F0.039073564321276406
sg8
I00
sg9
I-575000
sg10
S'elizabeth.tilney@enron.com'
p1377
sg12
I275000
sg13
F690.2761104441777
sg15
F0.013870598239455708
sg16
g14
sg17
g5
sg18
g14
sg19
I379
sg20
g5
sg21
I19
sg22
I152055
sg23
F2706023.0
sg24
F0.5789473684210527
sg25
g14
sg26
g5
sg27
F0.014677507490784749
sg28
g29
(g33
S'\xa5\xda\x97\x9a\xc2\x9c\xe2?'
p1378
tp1379
Rp1380
sg39
F0.0013223830734966592
sg40
I300000
sg41
I1168042
sg42
I10
sg43
I11
sg44
g29
(g33
S'\xc9D\x04\xe3Y\x9e\xcc?'
p1381
tp1382
Rp1383
sg48
I576792
sg49
I247338
sg50
I399393
sg51
F0.05344544308604483
sg52
g29
(g33
S'\xb6\xe4\x14R\xe6\x97i?'
p1384
tp1385
Rp1386
sg56
I591250
sg57
g29
(g33
S'\x8bx$L\xc9\x11k?'
p1387
tp1388
Rp1389
sg61
F0.5789473684210527
ssS'MARTIN AMANDA K'
p1390
(dp1391
g3
I1522
sg4
I85430
sg6
I8211
sg7
g14
sg8
I00
sg9
g5
sg10
S'a..martin@enron.com'
p1392
sg12
I5145434
sg13
g14
sg15
F0.06610834446457321
sg16
F0.03589304214405301
sg17
g5
sg18
F0.013292381036846176
sg19
I477
sg20
g5
sg21
I230
sg22
I2818454
sg23
F12897115.0
sg24
F0.0
sg25
g14
sg26
g5
sg27
F0.2720586609939314
sg28
g29
(g33
S'\x82\xcd?h\xa2\x06\xcb\xbf'
p1393
tp1394
Rp1395
sg39
F0.016007795100222717
sg40
g5
sg41
I2070306
sg42
I8
sg43
I0
sg44
g29
(g33
S'\xe2N*\xf5j\xd5\xe5\xbf'
p1396
tp1397
Rp1398
sg48
g5
sg49
I349487
sg50
I8407016
sg51
F1.0
sg52
g29
(g33
S'\x92\xcc\xca\xd2\x92\x86\x83\xbf'
p1399
tp1400
Rp1401
sg56
I2070306
sg57
g29
(g33
S'\xddR\xab\x16,\xa7S\xbf'
p1402
tp1403
Rp1404
sg61
F0.0
ssS'BUY RICHARD B'
p1405
(dp1406
g3
I3523
sg4
I649584
sg6
g5
sg7
F0.06108086239966768
sg8
I00
sg9
I-694862
sg10
S'rick.buy@enron.com'
p1407
sg12
I769862
sg13
F834.1680672268908
sg15
F0.04907223709258001
sg16
g14
sg17
g5
sg18
F0.10107126353082858
sg19
I2333
sg20
g5
sg21
I1053
sg22
I400572
sg23
F9573531.0
sg24
F0.06742640075973409
sg25
g14
sg26
g5
sg27
F0.038666262408987725
sg28
g29
(g33
S'{E\xa3\xf2Y\x1f\xd2\xbf'
p1408
tp1409
Rp1410
sg39
F0.07328786191536749
sg40
I900000
sg41
I3444470
sg42
I156
sg43
I71
sg44
g29
(g33
S'\x97I\x1a^\xcd\x91\xe3\xbf'
p1411
tp1412
Rp1413
sg48
I901657
sg49
I330546
sg50
I2355702
sg51
F0.1496204207458496
sg52
g29
(g33
S'\xbd\x9a\xceM:\x80\x81\xbf'
p1414
tp1415
Rp1416
sg56
I2542813
sg57
g29
(g33
S'\x86\x08\xa0\xd4d[Z\xbf'
p1417
tp1418
Rp1419
sg61
F0.06742640075973409
ssS'GRAMM WENDY L'
p1420
(dp1421
g3
g5
sg4
g5
sg6
g5
sg7
g14
sg8
I00
sg9
g5
sg10
g5
sg12
g5
sg13
g14
sg15
F0.0006114698231246188
sg16
g14
sg17
g5
sg18
g14
sg19
g5
sg20
g5
sg21
g5
sg22
g5
sg23
F119292.0
sg24
g14
sg25
g14
sg26
I119292
sg27
g14
sg28
g14
sg39
g14
sg40
g5
sg41
g5
sg42
g5
sg43
g5
sg44
g14
sg48
g5
sg49
g5
sg50
I119292
sg51
g14
sg52
g14
sg56
g5
sg57
g14
sg61
g14
ssS'CAUSEY RICHARD A'
p1422
(dp1423
g3
I1892
sg4
g5
sg6
I30674
sg7
F0.16949701030247613
sg8
I01
sg9
I-235000
sg10
S'richard.causey@enron.com'
p1424
sg12
I350000
sg13
F282.1128451380552
sg15
F0.029658070208373365
sg16
F0.13408636886209746
sg17
g5
sg18
g14
sg19
I1585
sg20
g5
sg21
I49
sg22
I307895
sg23
F5786010.0
sg24
F0.24489795918367346
sg25
g14
sg26
g5
sg27
F0.029720372029036667
sg28
g29
(g33
S'\xd4u}\x9d\xa94\x9f?'
p1425
tp1426
Rp1427
sg39
F0.003410356347438753
sg40
I1000000
sg41
I2502063
sg42
I58
sg43
I12
sg44
g29
(g33
S"'B\xb9W:j\xc7?"
p1428
tp1429
Rp1430
sg48
I2502063
sg49
I415189
sg50
I1868758
sg51
F0.06802147301860251
sg52
g29
(g33
S'\x85\x83\xc5\x93\x97\xf0d?'
p1431
tp1432
Rp1433
sg56
g5
sg57
g29
(g33
S'\x10\xc7!\xa1I\xb1&?'
p1434
tp1435
Rp1436
sg61
F0.24489795918367346
ssS'TAYLOR MITCHELL S'
p1437
(dp1438
g3
I533
sg4
I227449
sg6
g5
sg7
F0.03819331304388236
sg8
I00
sg9
g5
sg10
S'mitchell.taylor@enron.com'
p1439
sg12
g5
sg13
g14
sg15
F0.04553871941000369
sg16
g14
sg17
g5
sg18
F0.03538966141226297
sg19
I300
sg20
g5
sg21
I29
sg22
g5
sg23
F8884175.0
sg24
F0.0
sg25
g14
sg26
g5
sg27
g14
sg28
g29
(g33
S'T\xc4\xd6O\x98\xe2\xdc\xbf'
p1440
tp1441
Rp1442
sg39
F0.0020183741648106906
sg40
I600000
sg41
I3745048
sg42
I0
sg43
I0
sg44
g29
(g33
S'&\xdb\x94\xb4\xc8\xa5\xe0?'
p1443
tp1444
Rp1445
sg48
I563798
sg49
I265214
sg50
I1092663
sg51
g14
sg52
g29
(g33
S'YR\n\xc4\x8f\xc6}?'
p1446
tp1447
Rp1448
sg56
I3181250
sg57
g29
(g33
S'M\xc9ueI\x01e\xbf'
p1449
tp1450
Rp1451
sg61
F0.0
ssS'DONAHUE JR JEFFREY M'
p1452
(dp1453
g3
I865
sg4
g5
sg6
I96268
sg7
F0.02134362086085784
sg8
I00
sg9
I-300000
sg10
S'jeff.donahue@enron.com'
p1454
sg12
g5
sg13
F360.1440576230492
sg15
F0.0194846367156146
sg16
F0.4208198004047857
sg17
g5
sg18
g14
sg19
I772
sg20
g5
sg21
I22
sg22
I891
sg23
F3801269.0
sg24
F0.5
sg25
g14
sg26
g5
sg27
F8.600611077760817e-05
sg28
g29
(g33
S'ZK\x86=\xe8%\xb1?'
p1455
tp1456
Rp1457
sg39
F0.0015311804008908685
sg40
I800000
sg41
I1080988
sg42
I188
sg43
I11
sg44
g29
(g33
S'\x1f?\xa1o\x04\x9f\x9d?'
p1458
tp1459
Rp1460
sg48
I315068
sg49
I278601
sg50
I875760
sg51
g14
sg52
g29
(g33
S'N\x1a2/o}:?'
p1461
tp1462
Rp1463
sg56
I765920
sg57
g29
(g33
S'HF\xc4C\x9b\xf08?'
p1464
tp1465
Rp1466
sg61
F0.5
ssS'GLISAN JR BEN F'
p1467
(dp1468
g3
I873
sg4
g5
sg6
I125978
sg7
F0.02667837444672678
sg8
I01
sg9
g5
sg10
S'ben.glisan@enron.com'
p1469
sg12
I71023
sg13
g14
sg15
F0.016969210240068183
sg16
F0.5506922010989539
sg17
g5
sg18
g14
sg19
I874
sg20
g5
sg21
I16
sg22
I200308
sg23
F3310533.0
sg24
F0.375
sg25
g14
sg26
g5
sg27
F0.019335254812167385
sg28
g29
(g33
S'\x00\x00\x00\x00\x00\x00\xf0?'
p1470
tp1471
Rp1472
sg39
F0.0011135857461024498
sg40
I600000
sg41
I778546
sg42
I52
sg43
I6
sg44
g29
(g33
S'\x00\x00\x00\x00\x00\x00\xf0?'
p1473
tp1474
Rp1475
sg48
I393818
sg49
I274975
sg50
I1272284
sg51
F0.013803111652000589
sg52
g29
(g33
S'\x81vc\xf8\n\x9e\x8c?'
p1476
tp1477
Rp1478
sg56
I384728
sg57
g29
(g33
S'\xf8\xf9\xe2"\'Ew?'
p1479
tp1480
Rp1481
sg61
F0.375
ss.