(dp0
S'METTS MARK'
p1
(dp2
S'to_messages'
p3
I807
sS'deferral_payments'
p4
S'NaN'
p5
sS'expenses'
p6
I94299
sS'poi'
p7
I00
sS'deferred_income'
p8
g5
sS'email_address'
p9
S'mark.metts@enron.com'
p10
sS'long_term_incentive'
p11
g5
sS'restricted_stock_deferred'
p12
g5
sS'shared_receipt_with_poi'
p13
I702
sS'loan_advances'
p14
g5
sS'from_messages'
p15
I29
sS'other'
p16
I1740
sS'combined'
p17
F2612677.0
sS'to_poi_ratio'
p18
F0.034482758620689655
sS'director_fees'
p19
g5
sS'bonus'
p20
I600000
sS'total_stock_value'
p21
I585062
sS'from_poi_to_this_person'
p22
I38
sS'from_this_person_to_poi'
p23
I1
sS'restricted_stock'
p24
I585062
sS'salary'
p25
I365788
sS'total_payments'
p26
I1061827
sS'email_body'
p27
cnumpy.core.multiarray
scalar
p28
(cnumpy
dtype
p29
(S'f8'
p30
I0
I1
tp31
Rp32
(I3
S'<'
p33
NNNI-1
I-1
I0
tp34
bS'\xf3\xe8-d=\x96h\xbf'
p35
tp36
Rp37
sS'exercised_stock_options'
p38
g5
sS'email_subject'
p39
g28
(g32
S'\x88\xf7\x9eH\x89c\xf1>'
p40
tp41
Rp42
ssS'BAXTER JOHN C'
p43
(dp44
g3
g5
sg4
I1295738
sg6
I11200
sg7
I00
sg8
I-1386055
sg9
g5
sg11
I1586055
sg12
g5
sg13
g5
sg14
g5
sg15
g5
sg16
I2660303
sg17
F24405247.0
sg18
S'NaN'
p45
sg19
g5
sg20
I1200000
sg21
I10623258
sg22
g5
sg23
g5
sg24
I3942714
sg25
I267102
sg26
I5634343
sg27
g45
sg38
I6680544
sg39
g45
ssS'ELLIOTT STEVEN'
p46
(dp47
g3
g5
sg4
g5
sg6
I78552
sg7
I00
sg8
I-400729
sg9
S'steven.elliott@enron.com'
p48
sg11
g5
sg12
g5
sg13
g5
sg14
g5
sg15
g5
sg16
I12961
sg17
F12301745.0
sg18
g45
sg19
g5
sg20
I350000
sg21
I6678735
sg22
g5
sg23
g5
sg24
I1788391
sg25
I170941
sg26
I211725
sg27
g45
sg38
I4890344
sg39
g45
ssS'CORDES WILLIAM R'
p49
(dp50
g3
I764
sg4
g5
sg6
g5
sg7
I00
sg8
g5
sg9
S'bill.cordes@enron.com'
p51
sg11
g5
sg12
g5
sg13
I58
sg14
g5
sg15
I12
sg16
g5
sg17
F1690035.0
sg18
F0.0
sg19
g5
sg20
g5
sg21
I1038185
sg22
I10
sg23
I0
sg24
I386335
sg25
g5
sg26
g5
sg27
g28
(g32
S'\x1d\x1d\x10\xb8\x92\x02j\xbf'
p52
tp53
Rp54
sg38
I651850
sg39
g28
(g32
S'F\xdd\xd0\xb16\x8b\x7f\xbf'
p55
tp56
Rp57
ssS'HANNON KEVIN P'
p58
(dp59
g3
I1045
sg4
g5
sg6
I34039
sg7
I01
sg8
I-3117011
sg9
S'kevin.hannon@enron.com'
p60
sg11
I1617011
sg12
g5
sg13
I1035
sg14
g5
sg15
I32
sg16
I11350
sg17
F13961041.0
sg18
F0.65625
sg19
g5
sg20
I1500000
sg21
I6391065
sg22
I32
sg23
I21
sg24
I853064
sg25
I243293
sg26
I288682
sg27
g28
(g32
S'*~\x8d\x8b@w\x85?'
p61
tp62
Rp63
sg38
I5538001
sg39
g28
(g32
S'\xe6\x05\x04yc\xb2W?'
p64
tp65
Rp66
ssS'MORDAUNT KRISTINA M'
p67
(dp68
g3
g5
sg4
g5
sg6
I35018
sg7
I00
sg8
g5
sg9
S'kristina.mordaunt@enron.com'
p69
sg11
g5
sg12
g5
sg13
g5
sg14
g5
sg15
g5
sg16
I1411
sg17
F1429125.0
sg18
g45
sg19
g5
sg20
I325000
sg21
I208510
sg22
g5
sg23
g5
sg24
I208510
sg25
I267093
sg26
I628522
sg27
g45
sg38
g5
sg39
g45
ssS'MEYER ROCKFORD G'
p70
(dp71
g3
I232
sg4
I1848227
sg6
g5
sg7
I00
sg8
g5
sg9
S'rockford.meyer@enron.com'
p72
sg11
g5
sg12
g5
sg13
I22
sg14
g5
sg15
I28
sg16
g5
sg17
F3297589.0
sg18
F0.0
sg19
g5
sg20
g5
sg21
I955873
sg22
I0
sg23
I0
sg24
I462384
sg25
g5
sg26
I1848227
sg27
g28
(g32
S'\xc0\x90\x80\x19\xa6\xd7k?'
p73
tp74
Rp75
sg38
I493489
sg39
g28
(g32
S'@\xb7\xf5\x95[\x17\x15\xbf'
p76
tp77
Rp78
ssS'MCMAHON JEFFREY'
p79
(dp80
g3
I2355
sg4
g5
sg6
I137108
sg7
I00
sg8
g5
sg9
S'jeffrey.mcmahon@enron.com'
p81
sg11
I694862
sg12
g5
sg13
I2228
sg14
g5
sg15
I48
sg16
I297353
sg17
F9837128.0
sg18
F0.5416666666666666
sg19
g5
sg20
I2600000
sg21
I1662855
sg22
I58
sg23
I26
sg24
I558801
sg25
I370448
sg26
I4099771
sg27
g28
(g32
S'\x04\xb4w\x99G}e?'
p82
tp83
Rp84
sg38
I1104054
sg39
g28
(g32
S'A\x97>\xfc\x8c\x7fw\xbf'
p85
tp86
Rp87
ssS'HAEDICKE MARK E'
p88
(dp89
g3
I4009
sg4
I2157527
sg6
I76169
sg7
I00
sg8
I-934484
sg9
S'mark.haedicke@enron.com'
p90
sg11
I983346
sg12
I-329825
sg13
I1847
sg14
g5
sg15
I1941
sg16
I52382
sg17
F6795034.0
sg18
F0.03142709943328181
sg19
g5
sg20
I1150000
sg21
I803094
sg22
I180
sg23
I61
sg24
I524169
sg25
I374125
sg26
I3859065
sg27
g28
(g32
S'd\x9e\x16,i\xb3~\xbf'
p91
tp92
Rp93
sg38
I608750
sg39
g28
(g32
S'\xa2q\x9aI\xa2iO\xbf'
p94
tp95
Rp96
ssS'PIPER GREGORY F'
p97
(dp98
g3
I1238
sg4
I1130036
sg6
I43057
sg7
I00
sg8
I-33333
sg9
S'greg.piper@enron.com'
p99
sg11
g5
sg12
I-409554
sg13
I742
sg14
g5
sg15
I222
sg16
I778
sg17
F4095300.0
sg18
F0.21621621621621623
sg19
g5
sg20
I400000
sg21
I880290
sg22
I61
sg23
I48
sg24
I409554
sg25
I197091
sg26
I1737629
sg27
g28
(g32
S'Vt\xf9\xbc\xe6\xf4h\xbf'
p100
tp101
Rp102
sg38
I880290
sg39
g28
(g32
S'^\x95H idT\xbf'
p103
tp104
Rp105
ssS'HUMPHREY GENE E'
p106
(dp107
g3
I128
sg4
I2964506
sg6
I4994
sg7
I00
sg8
g5
sg9
S'gene.humphrey@enron.com'
p108
sg11
g5
sg12
g5
sg13
I119
sg14
g5
sg15
I17
sg16
g5
sg17
F7796484.0
sg18
F1.0
sg19
g5
sg20
g5
sg21
I2282768
sg22
I10
sg23
I17
sg24
g5
sg25
I130724
sg26
I3100224
sg27
g28
(g32
S'\x8f\xbe\xd0W+\x05x?'
p109
tp110
Rp111
sg38
I2282768
sg39
g28
(g32
S'\xcc(\xed\x11B\xceS\xbf'
p112
tp113
Rp114
ssS'NOLES JAMES L'
p115
(dp116
g3
g5
sg4
I774401
sg6
g5
sg7
I00
sg8
g5
sg9
g5
sg11
g5
sg12
I-94556
sg13
g5
sg14
g5
sg15
g5
sg16
g5
sg17
F1143106.0
sg18
g45
sg19
g5
sg20
g5
sg21
I368705
sg22
g5
sg23
g5
sg24
I463261
sg25
g5
sg26
I774401
sg27
g45
sg38
g5
sg39
g45
ssS'BLACHMAN JEREMY M'
p117
(dp118
g3
I2475
sg4
g5
sg6
I84208
sg7
I00
sg8
g5
sg9
S'jeremy.blachman@enron.com'
p119
sg11
I831809
sg12
g5
sg13
I2326
sg14
g5
sg15
I14
sg16
I272
sg17
F4833048.0
sg18
F0.14285714285714285
sg19
g5
sg20
I850000
sg21
I954354
sg22
I25
sg23
I2
sg24
I189041
sg25
I248546
sg26
I2014835
sg27
g28
(g32
S'\xb4\xd8\xfd\x83Vse?'
p120
tp121
Rp122
sg38
I765313
sg39
g28
(g32
S'\x816\xc6!\x12\xd1W\xbf'
p123
tp124
Rp125
ssS'SUNDE MARTIN'
p126
(dp127
g3
I2647
sg4
g5
sg6
g5
sg7
I00
sg8
g5
sg9
S'marty.sunde@enron.com'
p128
sg11
I476451
sg12
g5
sg13
I2565
sg14
g5
sg15
I38
sg16
I111122
sg17
F3201465.0
sg18
F0.34210526315789475
sg19
g5
sg20
I700000
sg21
I698920
sg22
I37
sg23
I13
sg24
I698920
sg25
I257486
sg26
I1545059
sg27
g28
(g32
S'\xd204\x8b9E`?'
p129
tp130
Rp131
sg38
g5
sg39
g28
(g32
S'\xe4\x1f\xe0\xaa\xd1\xafY\xbf'
p132
tp133
Rp134
ssS'GIBBS DANA R'
p135
(dp136
g3
I169
sg4
I504610
sg6
g5
sg7
I00
sg8
g5
sg9
S'dana.gibbs@enron.com'
p137
sg11
I461912
sg12
g5
sg13
I23
sg14
g5
sg15
I12
sg16
g5
sg17
F5403072.0
sg18
F0.0
sg19
g5
sg20
g5
sg21
I2218275
sg22
I0
sg23
I0
sg24
g5
sg25
g5
sg26
I966522
sg27
g28
(g32
S'\x96l-\xdc\xec\xdb2\xbf'
p138
tp139
Rp140
sg38
I2218275
sg39
g28
(g32
S'\xb0\xa4\x93\x86\x01j\x10?'
p141
tp142
Rp143
ssS'LOWRY CHARLES P'
p144
(dp145
g3
g5
sg4
g5
sg6
g5
sg7
I00
sg8
g5
sg9
g5
sg11
g5
sg12
I-153686
sg13
g5
sg14
g5
sg15
g5
sg16
g5
sg17
F744410.0
sg18
g45
sg19
g5
sg20
g5
sg21
I372205
sg22
g5
sg23
g5
sg24
I153686
sg25
g5
sg26
g5
sg27
g45
sg38
I372205
sg39
g45
ssS'COLWELL WESLEY'
p146
(dp147
g3
I1758
sg4
I27610
sg6
I16514
sg7
I01
sg8
I-144062
sg9
S'wes.colwell@enron.com'
p148
sg11
g5
sg12
g5
sg13
I1132
sg14
g5
sg15
I40
sg16
I101740
sg17
F3677128.0
sg18
F0.275
sg19
g5
sg20
I1200000
sg21
I698242
sg22
I240
sg23
I11
sg24
I698242
sg25
I288542
sg26
I1490344
sg27
g28
(g32
S'\x87\xfc\xf7\xc7\xcd y?'
p149
tp150
Rp151
sg38
g5
sg39
g28
(g32
S'tz6Jh\xca4?'
p152
tp153
Rp154
ssS'MULLER MARK S'
p155
(dp156
g3
I136
sg4
I842924
sg6
g5
sg7
I00
sg8
I-719000
sg9
S's..muller@enron.com'
p157
sg11
I1725545
sg12
g5
sg13
I114
sg14
g5
sg15
I16
sg16
I947
sg17
F7026892.0
sg18
F0.0
sg19
g5
sg20
I1100000
sg21
I1416848
sg22
I12
sg23
I0
sg24
I360528
sg25
I251654
sg26
I3202070
sg27
g28
(g32
S'n\x01\x94\xff\xcfj\x84\xbf'
p158
tp159
Rp160
sg38
I1056320
sg39
g28
(g32
S'\x9d\x13\xdf\xcd\xf1\x01t\xbf'
p161
tp162
Rp163
ssS'JACKSON CHARLENE R'
p164
(dp165
g3
I258
sg4
g5
sg6
I10181
sg7
I00
sg8
g5
sg9
S'charlene.jackson@enron.com'
p166
sg11
g5
sg12
g5
sg13
I117
sg14
g5
sg15
I56
sg16
I2435
sg17
F2000530.0
sg18
F0.3392857142857143
sg19
g5
sg20
I250000
sg21
I725735
sg22
I25
sg23
I19
sg24
I540672
sg25
I288558
sg26
I551174
sg27
g28
(g32
S'@l\xebW\x94E<?'
p167
tp168
Rp169
sg38
I185063
sg39
g28
(g32
S'HF\xc4C\x9b\xf08?'
p170
tp171
Rp172
ssS'WESTFAHL RICHARD K'
p173
(dp174
g3
g5
sg4
g5
sg6
I51870
sg7
I00
sg8
I-10800
sg9
S'dick.westfahl@enron.com'
p175
sg11
I256191
sg12
g5
sg13
g5
sg14
g5
sg15
g5
sg16
I401130
sg17
F1210809.0
sg18
g45
sg19
g5
sg20
g5
sg21
I384930
sg22
g5
sg23
g5
sg24
I384930
sg25
I63744
sg26
I762135
sg27
g45
sg38
g5
sg39
g45
ssS'WALTERS GARETH W'
p176
(dp177
g3
g5
sg4
I53625
sg6
I33785
sg7
I00
sg8
g5
sg9
g5
sg11
g5
sg12
g5
sg13
g5
sg14
g5
sg15
g5
sg16
g5
sg17
F2148068.0
sg18
g45
sg19
g5
sg20
g5
sg21
I1030329
sg22
g5
sg23
g5
sg24
g5
sg25
g5
sg26
I87410
sg27
g45
sg38
I1030329
sg39
g45
ssS'WALLS JR ROBERT H'
p178
(dp179
g3
I671
sg4
g5
sg6
I50936
sg7
I00
sg8
g5
sg9
S'rob.walls@enron.com'
p180
sg11
I540751
sg12
g5
sg13
I215
sg14
g5
sg15
I146
sg16
I2
sg17
F13251412.0
sg18
F0.0
sg19
g5
sg20
I850000
sg21
I5898997
sg22
I17
sg23
I0
sg24
I1552453
sg25
I357091
sg26
I1798780
sg27
g28
(g32
S'\\\x8e\xf7\xa0wzr\xbf'
p181
tp182
Rp183
sg38
I4346544
sg39
g28
(g32
S'\xd2\x04HH\n\xa9\x83\xbf'
p184
tp185
Rp186
ssS'KITCHEN LOUISE'
p187
(dp188
g3
I8305
sg4
g5
sg6
I5774
sg7
I00
sg8
g5
sg9
S'louise.kitchen@enron.com'
p189
sg11
g5
sg12
g5
sg13
I3669
sg14
g5
sg15
I1728
sg16
I93925
sg17
F7470768.0
sg18
F0.11226851851851852
sg19
g5
sg20
I3100000
sg21
I547143
sg22
I251
sg23
I194
sg24
I466101
sg25
I271442
sg26
I3471141
sg27
g28
(g32
S'\xb8\x18iL5/\x81\xbf'
p190
tp191
Rp192
sg38
I81042
sg39
g28
(g32
S'\n\x8c\xd2\x0cR\x87Y\xbf'
p193
tp194
Rp195
ssS'CHAN RONNIE'
p196
(dp197
g3
g5
sg4
g5
sg6
g5
sg7
I00
sg8
I-98784
sg9
g5
sg11
g5
sg12
I-32460
sg13
g5
sg14
g5
sg15
g5
sg16
g5
sg17
I0
sg18
g45
sg19
I98784
sg20
g5
sg21
g5
sg22
g5
sg23
g5
sg24
I32460
sg25
g5
sg26
g5
sg27
g45
sg38
g5
sg39
g45
ssS'BELFER ROBERT'
p198
(dp199
g3
g5
sg4
I-102500
sg6
g5
sg7
I00
sg8
g5
sg9
g5
sg11
g5
sg12
I44093
sg13
g5
sg14
g5
sg15
g5
sg16
g5
sg17
F61692.0
sg18
g45
sg19
I3285
sg20
g5
sg21
I-44093
sg22
g5
sg23
g5
sg24
g5
sg25
g5
sg26
I102500
sg27
g45
sg38
I3285
sg39
g45
ssS'SHANKMAN JEFFREY A'
p200
(dp201
g3
I3221
sg4
g5
sg6
I178979
sg7
I00
sg8
g5
sg9
S'jeffrey.shankman@enron.com'
p202
sg11
I554422
sg12
g5
sg13
I1730
sg14
g5
sg15
I2681
sg16
I1191
sg17
F8856745.0
sg18
F0.030958597538232
sg19
g5
sg20
I2000000
sg21
I2072035
sg22
I94
sg23
I83
sg24
I630137
sg25
I304110
sg26
I3038702
sg27
g28
(g32
S'\x1a\r&\x1c\x13W{\xbf'
p203
tp204
Rp205
sg38
I1441898
sg39
g28
(g32
S'f\xb7G \xaag ?'
p206
tp207
Rp208
ssS'WODRASKA JOHN'
p209
(dp210
g3
g5
sg4
g5
sg6
g5
sg7
I00
sg8
g5
sg9
S'john.wodraska@enron.com'
p211
sg11
g5
sg12
g5
sg13
g5
sg14
g5
sg15
g5
sg16
I189583
sg17
F189583.0
sg18
g45
sg19
g5
sg20
g5
sg21
g5
sg22
g5
sg23
g5
sg24
g5
sg25
g5
sg26
I189583
sg27
g45
sg38
g5
sg39
g45
ssS'BERGSIEKER RICHARD P'
p212
(dp213
g3
I383
sg4
g5
sg6
I59175
sg7
I00
sg8
I-485813
sg9
S'rick.bergsieker@enron.com'
p214
sg11
I180250
sg12
g5
sg13
I233
sg14
g5
sg15
I59
sg16
I427316
sg17
F1716021.0
sg18
F0.0
sg19
g5
sg20
I250000
sg21
I659249
sg22
I4
sg23
I0
sg24
I659249
sg25
I187922
sg26
I618850
sg27
g28
(g32
S'Q\x99\x18U\x8d$G?'
p215
tp216
Rp217
sg38
g5
sg39
g28
(g32
S'\x92d\xe1\xa7\x00\xebF\xbf'
p218
tp219
Rp220
ssS'URQUHART JOHN A'
p221
(dp222
g3
g5
sg4
g5
sg6
I228656
sg7
I00
sg8
I-36666
sg9
g5
sg11
g5
sg12
g5
sg13
g5
sg14
g5
sg15
g5
sg16
g5
sg17
F228656.0
sg18
g45
sg19
I36666
sg20
g5
sg21
g5
sg22
g5
sg23
g5
sg24
g5
sg25
g5
sg26
I228656
sg27
g45
sg38
g5
sg39
g45
ssS'BIBI PHILIPPE A'
p223
(dp224
g3
I1607
sg4
g5
sg6
I38559
sg7
I00
sg8
g5
sg9
S'philippe.bibi@enron.com'
p225
sg11
I369721
sg12
g5
sg13
I1336
sg14
g5
sg15
I40
sg16
I425688
sg17
F6570768.0
sg18
F0.2
sg19
g5
sg20
I1000000
sg21
I1843816
sg22
I23
sg23
I8
sg24
I378082
sg25
I213625
sg26
I2047593
sg27
g28
(g32
S'\x8b\x84\xa8K\xa4\xdaZ?'
p226
tp227
Rp228
sg38
I1465734
sg39
g28
(g32
S'\xc6jB\xef]5H?'
p229
tp230
Rp231
ssS'RIEKER PAULA H'
p232
(dp233
g3
I1328
sg4
I214678
sg6
I33271
sg7
I01
sg8
I-100000
sg9
S'paula.rieker@enron.com'
p234
sg11
g5
sg12
g5
sg13
I1258
sg14
g5
sg15
I82
sg16
I1950
sg17
F5602426.0
sg18
F0.5853658536585366
sg19
g5
sg20
I700000
sg21
I1918887
sg22
I35
sg23
I48
sg24
I283649
sg25
I249201
sg26
I1099100
sg27
g28
(g32
S"\x95'\xf0<\xee\x0ch?"
p235
tp236
Rp237
sg38
I1635238
sg39
g28
(g32
S'\x9cBP\xcd\x9bSc?'
p238
tp239
Rp240
ssS'WHALEY DAVID A'
p241
(dp242
g3
g5
sg4
g5
sg6
g5
sg7
I00
sg8
g5
sg9
g5
sg11
g5
sg12
g5
sg13
g5
sg14
g5
sg15
g5
sg16
g5
sg17
F197436.0
sg18
g45
sg19
g5
sg20
g5
sg21
I98718
sg22
g5
sg23
g5
sg24
g5
sg25
g5
sg26
g5
sg27
g45
sg38
I98718
sg39
g45
ssS'BECK SALLY W'
p243
(dp244
g3
I7315
sg4
g5
sg6
I37172
sg7
I00
sg8
g5
sg9
S'sally.beck@enron.com'
p245
sg11
g5
sg12
g5
sg13
I2639
sg14
g5
sg15
I4343
sg16
I566
sg17
F2026425.0
sg18
F0.08887865530739121
sg19
g5
sg20
I700000
sg21
I126027
sg22
I144
sg23
I386
sg24
I126027
sg25
I231330
sg26
I969068
sg27
g28
(g32
S'R\xc4\xa68\xe3\x90\x82\xbf'
p246
tp247
Rp248
sg38
g5
sg39
g28
(g32
S'8\x9bI!\xbb\xeb\\\xbf'
p249
tp250
Rp251
ssS'HAUG DAVID L'
p252
(dp253
g3
I573
sg4
g5
sg6
I475
sg7
I00
sg8
g5
sg9
S'david.haug@enron.com'
p254
sg11
g5
sg12
g5
sg13
I471
sg14
g5
sg15
I19
sg16
g5
sg17
F2217774.0
sg18
F0.3684210526315789
sg19
g5
sg20
g5
sg21
I2217299
sg22
I4
sg23
I7
sg24
I2217299
sg25
g5
sg26
I475
sg27
g28
(g32
S'\x14\\g\x7fA\xc4k?'
p255
tp256
Rp257
sg38
g5
sg39
g28
(g32
S'\x12\xda{V\x91\x19K\xbf'
p258
tp259
Rp260
ssS'ECHOLS JOHN B'
p261
(dp262
g3
g5
sg4
g5
sg6
I21530
sg7
I00
sg8
g5
sg9
S'john.echols@enron.com'
p263
sg11
I2234774
sg12
g5
sg13
g5
sg14
g5
sg15
g5
sg16
I53775
sg17
F4684948.0
sg18
g45
sg19
g5
sg20
I200000
sg21
I1008941
sg22
g5
sg23
g5
sg24
I407503
sg25
I182245
sg26
I2692324
sg27
g45
sg38
I601438
sg39
g45
ssS'MENDELSOHN JOHN'
p264
(dp265
g3
g5
sg4
g5
sg6
I148
sg7
I00
sg8
I-103750
sg9
g5
sg11
g5
sg12
g5
sg13
g5
sg14
g5
sg15
g5
sg16
g5
sg17
F148.0
sg18
g45
sg19
I103750
sg20
g5
sg21
g5
sg22
g5
sg23
g5
sg24
g5
sg25
g5
sg26
I148
sg27
g45
sg38
g5
sg39
g45
ssS'HICKERSON GARY J'
p266
(dp267
g3
I1320
sg4
g5
sg6
I98849
sg7
I00
sg8
g5
sg9
S'gary.hickerson@enron.com'
p268
sg11
I69223
sg12
g5
sg13
I900
sg14
g5
sg15
I27
sg16
I1936
sg17
F4434680.0
sg18
F0.037037037037037035
sg19
g5
sg20
I1700000
sg21
I441096
sg22
I40
sg23
I1
sg24
I441096
sg25
I211788
sg26
I2081796
sg27
g28
(g32
S'\x01\xe6\xc0C\x1aBb\xbf'
p269
tp270
Rp271
sg38
g5
sg39
g28
(g32
S'S\xf8N\xa4r\xfe(?'
p272
tp273
Rp274
ssS'CLINE KENNETH W'
p275
(dp276
g3
g5
sg4
g5
sg6
g5
sg7
I00
sg8
g5
sg9
g5
sg11
g5
sg12
I-472568
sg13
g5
sg14
g5
sg15
g5
sg16
g5
sg17
F189518.0
sg18
g45
sg19
g5
sg20
g5
sg21
I189518
sg22
g5
sg23
g5
sg24
I662086
sg25
g5
sg26
g5
sg27
g45
sg38
g5
sg39
g45
ssS'LEWIS RICHARD'
p277
(dp278
g3
I952
sg4
g5
sg6
g5
sg7
I00
sg8
g5
sg9
S'richard.lewis@enron.com'
p279
sg11
g5
sg12
g5
sg13
I739
sg14
g5
sg15
I26
sg16
g5
sg17
F1700954.0
sg18
F0.0
sg19
g5
sg20
g5
sg21
I850477
sg22
I10
sg23
I0
sg24
g5
sg25
g5
sg26
g5
sg27
g28
(g32
S'q\x97\xc0\xed\x9c4\x82\xbf'
p280
tp281
Rp282
sg38
I850477
sg39
g28
(g32
S'\xee\x11\xffd\xd7Wp\xbf'
p283
tp284
Rp285
ssS'HAYES ROBERT E'
p286
(dp287
g3
I504
sg4
I7961
sg6
g5
sg7
I00
sg8
g5
sg9
S'robert.hayes@enron.com'
p288
sg11
g5
sg12
g5
sg13
I50
sg14
g5
sg15
I12
sg16
g5
sg17
F159379.0
sg18
F0.0
sg19
g5
sg20
g5
sg21
I151418
sg22
I16
sg23
I0
sg24
I151418
sg25
g5
sg26
I7961
sg27
g28
(g32
S'Wj\xa5\xd4\x86\x12\x88\xbf'
p289
tp290
Rp291
sg38
g5
sg39
g28
(g32
S'HF\xc4C\x9b\xf08?'
p292
tp293
Rp294
ssS'KOPPER MICHAEL J'
p295
(dp296
g3
g5
sg4
g5
sg6
I118134
sg7
I01
sg8
g5
sg9
S'michael.kopper@enron.com'
p297
sg11
I602671
sg12
g5
sg13
g5
sg14
g5
sg15
g5
sg16
I907502
sg17
F4661949.0
sg18
g45
sg19
g5
sg20
I800000
sg21
I985032
sg22
g5
sg23
g5
sg24
I985032
sg25
I224305
sg26
I2652612
sg27
g45
sg38
g5
sg39
g45
ssS'LEFF DANIEL P'
p298
(dp299
g3
I2822
sg4
g5
sg6
g5
sg7
I00
sg8
g5
sg9
S'dan.leff@enron.com'
p300
sg11
I1387399
sg12
g5
sg13
I2672
sg14
g5
sg15
I63
sg16
I3083
sg17
F4298502.0
sg18
F0.2222222222222222
sg19
g5
sg20
I1000000
sg21
I360528
sg22
I67
sg23
I14
sg24
I360528
sg25
I273746
sg26
I2664228
sg27
g28
(g32
S'\xe0i\xb8\xeb\xfe*b?'
p301
tp302
Rp303
sg38
g5
sg39
g28
(g32
S'\x1a\x17\xe4A\xc0&4\xbf'
p304
tp305
Rp306
ssS'LAVORATO JOHN J'
p307
(dp308
g3
I7259
sg4
g5
sg6
I49537
sg7
I00
sg8
g5
sg9
S'john.lavorato@enron.com'
p309
sg11
I2035380
sg12
g5
sg13
I3962
sg14
g5
sg15
I2585
sg16
I1552
sg17
F28091184.0
sg18
F0.15899419729206962
sg19
g5
sg20
I8000000
sg21
I5167144
sg22
I528
sg23
I411
sg24
I1008149
sg25
I339288
sg26
I10425757
sg27
g28
(g32
S'\xfaR\xff\x01#v\x80\xbf'
p310
tp311
Rp312
sg38
I4158995
sg39
g28
(g32
S'HF\xc4C\x9b\xf08?'
p313
tp314
Rp315
ssS'BERBERIAN DAVID'
p316
(dp317
g3
g5
sg4
g5
sg6
I11892
sg7
I00
sg8
g5
sg9
S'david.berberian@enron.com'
p318
sg11
g5
sg12
g5
sg13
g5
sg14
g5
sg15
g5
sg16
g5
sg17
F4563068.0
sg18
g45
sg19
g5
sg20
g5
sg21
I2493616
sg22
g5
sg23
g5
sg24
I869220
sg25
I216582
sg26
I228474
sg27
g45
sg38
I1624396
sg39
g45
ssS'DETMERING TIMOTHY J'
p319
(dp320
g3
g5
sg4
I875307
sg6
I52255
sg7
I00
sg8
I-775241
sg9
S'timothy.detmering@enron.com'
p321
sg11
I415657
sg12
I-315068
sg13
g5
sg14
g5
sg15
g5
sg16
I1105
sg17
F5895813.0
sg18
g45
sg19
g5
sg20
I425000
sg21
I2027865
sg22
g5
sg23
g5
sg24
I315068
sg25
I210500
sg26
I1204583
sg27
g45
sg38
I2027865
sg39
g45
ssS'WAKEHAM JOHN'
p322
(dp323
g3
g5
sg4
g5
sg6
I103773
sg7
I00
sg8
g5
sg9
g5
sg11
g5
sg12
g5
sg13
g5
sg14
g5
sg15
g5
sg16
g5
sg17
F213071.0
sg18
g45
sg19
I109298
sg20
g5
sg21
g5
sg22
g5
sg23
g5
sg24
g5
sg25
g5
sg26
I213071
sg27
g45
sg38
g5
sg39
g45
ssS'POWERS WILLIAM'
p324
(dp325
g3
I653
sg4
g5
sg6
g5
sg7
I00
sg8
I-17500
sg9
S'ken.powers@enron.com'
p326
sg11
g5
sg12
g5
sg13
I12
sg14
g5
sg15
I26
sg16
g5
sg17
I0
sg18
F0.0
sg19
I17500
sg20
g5
sg21
g5
sg22
I0
sg23
I0
sg24
g5
sg25
g5
sg26
g5
sg27
g28
(g32
S'\xe3\x0b\x93\xbe\xe4\xad}\xbf'
p327
tp328
Rp329
sg38
g5
sg39
g28
(g32
S' \xff)\x8d\xd2\x8b{\xbf'
p330
tp331
Rp332
ssS'GOLD JOSEPH'
p333
(dp334
g3
g5
sg4
g5
sg6
g5
sg7
I00
sg8
g5
sg9
S'joe.gold@enron.com'
p335
sg11
I304805
sg12
g5
sg13
g5
sg14
g5
sg15
g5
sg16
I819288
sg17
F4483979.0
sg18
g45
sg19
g5
sg20
I750000
sg21
I877611
sg22
g5
sg23
g5
sg24
I441096
sg25
I272880
sg26
I2146973
sg27
g45
sg38
I436515
sg39
g45
ssS'BANNANTINE JAMES M'
p336
(dp337
g3
I566
sg4
g5
sg6
I56301
sg7
I00
sg8
I-5104
sg9
S'james.bannantine@enron.com'
p338
sg11
g5
sg12
I-560222
sg13
I465
sg14
g5
sg15
I29
sg16
I864523
sg17
F10206318.0
sg18
F0.0
sg19
g5
sg20
g5
sg21
I5243487
sg22
I39
sg23
I0
sg24
I1757552
sg25
I477
sg26
I916197
sg27
g28
(g32
S'\x7f\xf2\x03\x83[\xa3z?'
p339
tp340
Rp341
sg38
I4046157
sg39
g28
(g32
S'\x0c\x95\x08\xcb\xfe\xddA?'
p342
tp343
Rp344
ssS'DUNCAN JOHN H'
p345
(dp346
g3
g5
sg4
g5
sg6
g5
sg7
I00
sg8
I-25000
sg9
g5
sg11
g5
sg12
g5
sg13
g5
sg14
g5
sg15
g5
sg16
g5
sg17
F820992.0
sg18
g45
sg19
I102492
sg20
g5
sg21
I371750
sg22
g5
sg23
g5
sg24
g5
sg25
g5
sg26
I77492
sg27
g45
sg38
I371750
sg39
g45
ssS'SHAPIRO RICHARD S'
p347
(dp348
g3
I15149
sg4
g5
sg6
I137767
sg7
I00
sg8
g5
sg9
S'richard.shapiro@enron.com'
p349
sg11
g5
sg12
g5
sg13
I4527
sg14
g5
sg15
I1215
sg16
I705
sg17
F3571462.0
sg18
F0.053497942386831275
sg19
g5
sg20
I650000
sg21
I987001
sg22
I74
sg23
I65
sg24
I379164
sg25
I269076
sg26
I1057548
sg27
g28
(g32
S'\x02<\xf7\xb8\x15\x0es\xbf'
p350
tp351
Rp352
sg38
I607837
sg39
g28
(g32
S'\xecu\x13\xa4\xe88Y\xbf'
p353
tp354
Rp355
ssS'SHERRIFF JOHN R'
p356
(dp357
g3
I3187
sg4
g5
sg6
g5
sg7
I00
sg8
g5
sg9
S'john.sherriff@enron.com'
p358
sg11
I554422
sg12
g5
sg13
I2103
sg14
g5
sg15
I92
sg16
I1852186
sg17
F11228708.0
sg18
F0.25
sg19
g5
sg20
I1500000
sg21
I3128982
sg22
I28
sg23
I23
sg24
I1293424
sg25
I428780
sg26
I4335388
sg27
g28
(g32
S'&\xa7\xd1\x08\xef1c?'
p359
tp360
Rp361
sg38
I1835558
sg39
g28
(g32
S'r\r&\xfdW4:\xbf'
p362
tp363
Rp364
ssS'SHELBY REX'
p365
(dp366
g3
I225
sg4
g5
sg6
I22884
sg7
I01
sg8
I-4167
sg9
S'rex.shelby@enron.com'
p367
sg11
g5
sg12
g5
sg13
I91
sg14
g5
sg15
I39
sg16
I1573324
sg17
F6533741.0
sg18
F0.358974358974359
sg19
g5
sg20
I200000
sg21
I2493616
sg22
I13
sg23
I14
sg24
I869220
sg25
I211844
sg26
I2003885
sg27
g28
(g32
S'\x19\x1bH\x06\n\xecr?'
p368
tp369
Rp370
sg38
I1624396
sg39
g28
(g32
S'\x06MCd8\\G?'
p371
tp372
Rp373
ssS'LEMAISTRE CHARLES'
p374
(dp375
g3
g5
sg4
g5
sg6
g5
sg7
I00
sg8
I-25000
sg9
g5
sg11
g5
sg12
g5
sg13
g5
sg14
g5
sg15
g5
sg16
g5
sg17
F913248.0
sg18
g45
sg19
I112492
sg20
g5
sg21
I412878
sg22
g5
sg23
g5
sg24
g5
sg25
g5
sg26
I87492
sg27
g45
sg38
I412878
sg39
g45
ssS'DEFFNER JOSEPH M'
p376
(dp377
g3
I714
sg4
g5
sg6
I41626
sg7
I00
sg8
g5
sg9
S'joseph.deffner@enron.com'
p378
sg11
I335349
sg12
g5
sg13
I552
sg14
g5
sg15
I74
sg16
I25553
sg17
F2191359.0
sg18
F0.05405405405405406
sg19
g5
sg20
I600000
sg21
I159211
sg22
I115
sg23
I4
sg24
I141833
sg25
I206121
sg26
I1208649
sg27
g28
(g32
S'\x80o\x9a\xb1\x03\xf2p\xbf'
p379
tp380
Rp381
sg38
I17378
sg39
g28
(g32
S'HF\xc4C\x9b\xf08?'
p382
tp383
Rp384
ssS'KISHKILL JOSEPH G'
p385
(dp386
g3
g5
sg4
g5
sg6
I116335
sg7
I00
sg8
I-51042
sg9
S'joe.kishkill@enron.com'
p387
sg11
g5
sg12
g5
sg13
g5
sg14
g5
sg15
g5
sg16
I465357
sg17
F1913488.0
sg18
g45
sg19
g5
sg20
g5
sg21
I1034346
sg22
g5
sg23
g5
sg24
I1034346
sg25
I174246
sg26
I704896
sg27
g45
sg38
g5
sg39
g45
ssS'WHALLEY LAWRENCE G'
p388
(dp389
g3
I6019
sg4
g5
sg6
I57838
sg7
I00
sg8
g5
sg9
S'greg.whalley@enron.com'
p390
sg11
I808346
sg12
g5
sg13
I3920
sg14
g5
sg15
I556
sg16
I301026
sg17
F17550035.0
sg18
F0.04316546762589928
sg19
g5
sg20
I3000000
sg21
I6079137
sg22
I186
sg23
I24
sg24
I2796177
sg25
I510364
sg26
I4677574
sg27
g28
(g32
S'\x95\xf49\xcd\x9e\x13p\xbf'
p391
tp392
Rp393
sg38
I3282960
sg39
g28
(g32
S'\xdak\xc2A+\x850\xbf'
p394
tp395
Rp396
ssS'PIRO JIM'
p397
(dp398
g3
I58
sg4
g5
sg6
g5
sg7
I00
sg8
g5
sg9
S'jim.piro@enron.com'
p399
sg11
g5
sg12
g5
sg13
I3
sg14
g5
sg15
I16
sg16
g5
sg17
F47304.0
sg18
F0.0625
sg19
g5
sg20
g5
sg21
I47304
sg22
I0
sg23
I1
sg24
I47304
sg25
g5
sg26
g5
sg27
g28
(g32
S')\xc0\xc7\x19G\xa4i?'
p400
tp401
Rp402
sg38
g5
sg39
g28
(g32
S'\x9e\x17\xc1\x1f\x96\xf3`\xbf'
p403
tp404
Rp405
ssS'MCCONNELL MICHAEL S'
p406
(dp407
g3
I3329
sg4
g5
sg6
I81364
sg7
I00
sg8
g5
sg9
S'mike.mcconnell@enron.com'
p408
sg11
I554422
sg12
g5
sg13
I2189
sg14
g5
sg15
I2742
sg16
I540
sg17
F8290691.0
sg18
F0.07075127644055434
sg19
g5
sg20
I1100000
sg21
I3101279
sg22
I92
sg23
I194
sg24
I1478269
sg25
I365038
sg26
I2101364
sg27
g28
(g32
S'\xfc\x06V\xbe\xb5\xc0v\xbf'
p409
tp410
Rp411
sg38
I1623010
sg39
g28
(g32
S'P\x9c\x0f*\x9b-U\xbf'
p412
tp413
Rp414
ssS'DELAINEY DAVID W'
p415
(dp416
g3
I3093
sg4
g5
sg6
I86174
sg7
I01
sg8
g5
sg9
S'david.delainey@enron.com'
p417
sg11
I1294981
sg12
g5
sg13
I2097
sg14
g5
sg15
I3069
sg16
I1661
sg17
F14018516.0
sg18
F0.198435972629521
sg19
g5
sg20
I3000000
sg21
I3614261
sg22
I66
sg23
I609
sg24
I1323148
sg25
I365163
sg26
I4747979
sg27
g28
(g32
S'\xfe\xad\x9dzO\x17\x85?'
p418
tp419
Rp420
sg38
I2291113
sg39
g28
(g32
S'\x82\x1c\x83?:\x17Y?'
p421
tp422
Rp423
ssS'SULLIVAN-SHAKLOVITZ COLLEEN'
p424
(dp425
g3
g5
sg4
I181993
sg6
g5
sg7
I00
sg8
g5
sg9
g5
sg11
I554422
sg12
g5
sg13
g5
sg14
g5
sg15
g5
sg16
I162
sg17
F3986885.0
sg18
g45
sg19
g5
sg20
I100000
sg21
I1362375
sg22
g5
sg23
g5
sg24
g5
sg25
I162779
sg26
I999356
sg27
g45
sg38
I1362375
sg39
g45
ssS'WROBEL BRUCE'
p426
(dp427
g3
g5
sg4
g5
sg6
g5
sg7
I00
sg8
g5
sg9
g5
sg11
g5
sg12
g5
sg13
g5
sg14
g5
sg15
g5
sg16
g5
sg17
F278260.0
sg18
g45
sg19
g5
sg20
g5
sg21
I139130
sg22
g5
sg23
g5
sg24
g5
sg25
g5
sg26
g5
sg27
g45
sg38
I139130
sg39
g45
ssS'LINDHOLM TOD A'
p428
(dp429
g3
g5
sg4
I204075
sg6
I57727
sg7
I00
sg8
g5
sg9
S'tod.lindholm@enron.com'
p430
sg11
I175000
sg12
g5
sg13
g5
sg14
g5
sg15
g5
sg16
I2630
sg17
F6925915.0
sg18
g45
sg19
g5
sg20
I200000
sg21
I3064208
sg22
g5
sg23
g5
sg24
I514847
sg25
I236457
sg26
I875889
sg27
g45
sg38
I2549361
sg39
g45
ssS'MEYER JEROME J'
p431
(dp432
g3
g5
sg4
g5
sg6
I2151
sg7
I00
sg8
I-38346
sg9
g5
sg11
g5
sg12
g5
sg13
g5
sg14
g5
sg15
g5
sg16
g5
sg17
F2151.0
sg18
g45
sg19
I38346
sg20
g5
sg21
g5
sg22
g5
sg23
g5
sg24
g5
sg25
g5
sg26
I2151
sg27
g45
sg38
g5
sg39
g45
ssS'LAY KENNETH L'
p433
(dp434
g3
I4273
sg4
I202911
sg6
I99832
sg7
I01
sg8
I-300000
sg9
S'kenneth.lay@enron.com'
p435
sg11
I3600000
sg12
g5
sg13
I2411
sg14
I81525000
sg15
I36
sg16
I10359729
sg17
F195090576.0
sg18
F0.4444444444444444
sg19
g5
sg20
I7000000
sg21
I49110078
sg22
I123
sg23
I16
sg24
I14761694
sg25
I1072321
sg26
I103559793
sg27
g28
(g32
S'Qs\xe0\x831\xff\x80?'
p436
tp437
Rp438
sg38
I34348384
sg39
g28
(g32
S'\x04\xf8\x82\xc0H\x7f`?'
p439
tp440
Rp441
ssS'BUTTS ROBERT H'
p442
(dp443
g3
g5
sg4
g5
sg6
I9410
sg7
I00
sg8
I-75000
sg9
S'bob.butts@enron.com'
p444
sg11
I175000
sg12
g5
sg13
g5
sg14
g5
sg15
g5
sg16
I150656
sg17
F2700717.0
sg18
g45
sg19
g5
sg20
I750000
sg21
I417619
sg22
g5
sg23
g5
sg24
I417619
sg25
I261516
sg26
I1271582
sg27
g45
sg38
g5
sg39
g45
ssS'OLSON CINDY K'
p445
(dp446
g3
I1184
sg4
I77716
sg6
I63791
sg7
I00
sg8
g5
sg9
S'cindy.olson@enron.com'
p447
sg11
I100000
sg12
g5
sg13
I856
sg14
g5
sg15
I52
sg16
I972
sg17
F6644432.0
sg18
F0.28846153846153844
sg19
g5
sg20
I750000
sg21
I2606763
sg22
I20
sg23
I15
sg24
I969729
sg25
I329078
sg26
I1321557
sg27
g28
(g32
S'\xa1\x80\xf0\xf0\xca<s\xbf'
p448
tp449
Rp450
sg38
I1637034
sg39
g28
(g32
S'\x14\xee\x8a8&\xf3A\xbf'
p451
tp452
Rp453
ssS'MCDONALD REBECCA'
p454
(dp455
g3
I894
sg4
g5
sg6
g5
sg7
I00
sg8
g5
sg9
S'rebecca.mcdonald@enron.com'
p456
sg11
g5
sg12
g5
sg13
I720
sg14
g5
sg15
I13
sg16
g5
sg17
F2448667.0
sg18
F0.07692307692307693
sg19
g5
sg20
g5
sg21
I1691366
sg22
I54
sg23
I1
sg24
I934065
sg25
g5
sg26
g5
sg27
g28
(g32
S'\xa8\x8e\x95\xebsj\x83?'
p457
tp458
Rp459
sg38
I757301
sg39
g28
(g32
S'\x80^J\x01\xb2\xefF\xbf'
p460
tp461
Rp462
ssS'CUMBERLAND MICHAEL S'
p463
(dp464
g3
g5
sg4
g5
sg6
I22344
sg7
I00
sg8
g5
sg9
g5
sg11
I275000
sg12
g5
sg13
g5
sg14
g5
sg15
g5
sg16
I713
sg17
F1525795.0
sg18
g45
sg19
g5
sg20
I325000
sg21
I207940
sg22
g5
sg23
g5
sg24
I207940
sg25
I184899
sg26
I807956
sg27
g45
sg38
g5
sg39
g45
ssS'GAHN ROBERT S'
p465
(dp466
g3
g5
sg4
I73122
sg6
I50080
sg7
I00
sg8
I-1042
sg9
g5
sg11
g5
sg12
g5
sg13
g5
sg14
g5
sg15
g5
sg16
I76547
sg17
F2004307.0
sg18
g45
sg19
g5
sg20
I509870
sg21
I318607
sg22
g5
sg23
g5
sg24
I235370
sg25
I192008
sg26
I900585
sg27
g45
sg38
I83237
sg39
g45
ssS'BADUM JAMES P'
p467
(dp468
g3
g5
sg4
I178980
sg6
I3486
sg7
I00
sg8
g5
sg9
g5
sg11
g5
sg12
g5
sg13
g5
sg14
g5
sg15
g5
sg16
g5
sg17
F698100.0
sg18
g45
sg19
g5
sg20
g5
sg21
I257817
sg22
g5
sg23
g5
sg24
g5
sg25
g5
sg26
I182466
sg27
g45
sg38
I257817
sg39
g45
ssS'HERMANN ROBERT J'
p469
(dp470
g3
g5
sg4
g5
sg6
I48357
sg7
I00
sg8
I-280000
sg9
S'robert.hermann@enron.com'
p471
sg11
I150000
sg12
g5
sg13
g5
sg14
g5
sg15
g5
sg16
I416441
sg17
F3115756.0
sg18
g45
sg19
g5
sg20
I700000
sg21
I668132
sg22
g5
sg23
g5
sg24
I480632
sg25
I262663
sg26
I1297461
sg27
g45
sg38
I187500
sg39
g45
ssS'FALLON JAMES B'
p472
(dp473
g3
I1755
sg4
g5
sg6
I95924
sg7
I00
sg8
g5
sg9
S'jim.fallon@enron.com'
p474
sg11
I374347
sg12
g5
sg13
I1604
sg14
g5
sg15
I75
sg16
I401481
sg17
F9753584.0
sg18
F0.49333333333333335
sg19
g5
sg20
I2500000
sg21
I2332399
sg22
I42
sg23
I37
sg24
I1392142
sg25
I304588
sg26
I3676340
sg27
g28
(g32
S'\xdb\xb2E\x968\xd4r\xbf'
p475
tp476
Rp477
sg38
I940257
sg39
g28
(g32
S'\x01~\x84ok;X\xbf'
p478
tp479
Rp480
ssS'GATHMANN WILLIAM D'
p481
(dp482
g3
g5
sg4
g5
sg6
g5
sg7
I00
sg8
g5
sg9
g5
sg11
g5
sg12
I-72419
sg13
g5
sg14
g5
sg15
g5
sg16
g5
sg17
F3699126.0
sg18
g45
sg19
g5
sg20
g5
sg21
I1945360
sg22
g5
sg23
g5
sg24
I264013
sg25
g5
sg26
g5
sg27
g45
sg38
I1753766
sg39
g45
ssS'HORTON STANLEY C'
p483
(dp484
g3
I2350
sg4
I3131860
sg6
g5
sg7
I00
sg8
g5
sg9
S'stanley.horton@enron.com'
p485
sg11
g5
sg12
g5
sg13
I1074
sg14
g5
sg15
I1073
sg16
g5
sg17
F15599077.0
sg18
F0.013979496738117428
sg19
g5
sg20
g5
sg21
I7256648
sg22
I44
sg23
I15
sg24
I2046079
sg25
g5
sg26
I3131860
sg27
g28
(g32
S'\xb9\x93\xe1`\xc2Yu\xbf'
p486
tp487
Rp488
sg38
I5210569
sg39
g28
(g32
S'N\xd4V<0\xb4Q\xbf'
p489
tp490
Rp491
ssS'BOWEN JR RAYMOND M'
p492
(dp493
g3
I1858
sg4
g5
sg6
I65907
sg7
I01
sg8
I-833
sg9
S'raymond.bowen@enron.com'
p494
sg11
I974293
sg12
g5
sg13
I1593
sg14
g5
sg15
I27
sg16
I1621
sg17
F4550245.0
sg18
F0.5555555555555556
sg19
g5
sg20
I1350000
sg21
I252055
sg22
I140
sg23
I15
sg24
I252055
sg25
I278601
sg26
I2669589
sg27
g28
(g32
S'#\x88\x85\xc6\xca\th\xbf'
p495
tp496
Rp497
sg38
g5
sg39
g28
(g32
S'HF\xc4C\x9b\xf08?'
p498
tp499
Rp500
ssS'GILLIS JOHN'
p501
(dp502
g3
g5
sg4
g5
sg6
g5
sg7
I00
sg8
g5
sg9
g5
sg11
g5
sg12
g5
sg13
g5
sg14
g5
sg15
g5
sg16
g5
sg17
F95444.0
sg18
g45
sg19
g5
sg20
g5
sg21
I85641
sg22
g5
sg23
g5
sg24
I75838
sg25
g5
sg26
g5
sg27
g45
sg38
I9803
sg39
g45
ssS'FITZGERALD JAY L'
p503
(dp504
g3
I936
sg4
g5
sg6
I23870
sg7
I00
sg8
g5
sg9
S'jay.fitzgerald@enron.com'
p505
sg11
I556416
sg12
g5
sg13
I723
sg14
g5
sg15
I16
sg16
I285414
sg17
F4249711.0
sg18
F0.5
sg19
g5
sg20
I350000
sg21
I1621236
sg22
I1
sg23
I8
sg24
I956775
sg25
I199157
sg26
I1414857
sg27
g28
(g32
S'V\xa3}j?\\\x80?'
p506
tp507
Rp508
sg38
I664461
sg39
g28
(g32
S'\xc98?x*\xfdk?'
p509
tp510
Rp511
ssS'MORAN MICHAEL P'
p512
(dp513
g3
I672
sg4
g5
sg6
g5
sg7
I00
sg8
g5
sg9
S'michael.moran@enron.com'
p514
sg11
g5
sg12
g5
sg13
I127
sg14
g5
sg15
I19
sg16
g5
sg17
F280680.0
sg18
F0.0
sg19
g5
sg20
g5
sg21
I221141
sg22
I0
sg23
I0
sg24
I161602
sg25
g5
sg26
g5
sg27
g28
(g32
S'U\xf3%\x16y\xbep?'
p515
tp516
Rp517
sg38
I59539
sg39
g28
(g32
S'HF\xc4C\x9b\xf08?'
p518
tp519
Rp520
ssS'REDMOND BRIAN L'
p521
(dp522
g3
I1671
sg4
g5
sg6
I14689
sg7
I00
sg8
g5
sg9
S'brian.redmond@enron.com'
p523
sg11
g5
sg12
g5
sg13
I1063
sg14
g5
sg15
I221
sg16
g5
sg17
F15607732.0
sg18
F0.22171945701357465
sg19
g5
sg20
g5
sg21
I7890324
sg22
I204
sg23
I49
sg24
I381285
sg25
I96840
sg26
I111529
sg27
g28
(g32
S'\xaa\x94I\xbe\xda\xe4^?'
p524
tp525
Rp526
sg38
I7509039
sg39
g28
(g32
S'z\xfb\xfd\xf7\xaf\xadT\xbf'
p527
tp528
Rp529
ssS'BAZELIDES PHILIP J'
p530
(dp531
g3
g5
sg4
I684694
sg6
g5
sg7
I00
sg8
g5
sg9
g5
sg11
I93750
sg12
g5
sg13
g5
sg14
g5
sg15
g5
sg16
I874
sg17
F4140236.0
sg18
g45
sg19
g5
sg20
g5
sg21
I1599641
sg22
g5
sg23
g5
sg24
g5
sg25
I80818
sg26
I860136
sg27
g45
sg38
I1599641
sg39
g45
ssS'BELDEN TIMOTHY N'
p532
(dp533
g3
I7991
sg4
I2144013
sg6
I17355
sg7
I01
sg8
I-2334434
sg9
S'tim.belden@enron.com'
p534
sg11
g5
sg12
g5
sg13
I5521
sg14
g5
sg15
I484
sg16
I210698
sg17
F13029469.0
sg18
F0.2231404958677686
sg19
g5
sg20
I5249999
sg21
I1110705
sg22
I228
sg23
I108
sg24
I157569
sg25
I213999
sg26
I5501630
sg27
g28
(g32
S'\xaa\xf2\xf1^b\x1f\x87?'
p535
tp536
Rp537
sg38
I953136
sg39
g28
(g32
S'\xaeA\x13\xae\x85\xd0k?'
p538
tp539
Rp540
ssS'DIMICHELE RICHARD G'
p541
(dp542
g3
g5
sg4
g5
sg6
I35812
sg7
I00
sg8
g5
sg9
S'richard.dimichele@enron.com'
p543
sg11
I694862
sg12
g5
sg13
g5
sg14
g5
sg15
g5
sg16
I374689
sg17
F20140476.0
sg18
g45
sg19
g5
sg20
I1000000
sg21
I8317782
sg22
g5
sg23
g5
sg24
I126027
sg25
I262788
sg26
I2368151
sg27
g45
sg38
I8191755
sg39
g45
ssS'DURAN WILLIAM D'
p544
(dp545
g3
I904
sg4
g5
sg6
I25785
sg7
I00
sg8
g5
sg9
S'w.duran@enron.com'
p546
sg11
I1105218
sg12
g5
sg13
I599
sg14
g5
sg15
I12
sg16
I1568
sg17
F6146734.0
sg18
F0.25
sg19
g5
sg20
I750000
sg21
I1640910
sg22
I106
sg23
I3
sg24
I189041
sg25
I210692
sg26
I2093263
sg27
g28
(g32
S'\xfa\x0f\xa4\x8b\xb0an?'
p547
tp548
Rp549
sg38
I1451869
sg39
g28
(g32
S'\xb0e\x95\xdf[R\xf4>'
p550
tp551
Rp552
ssS'THORN TERENCE H'
p553
(dp554
g3
I266
sg4
I16586
sg6
I46145
sg7
I00
sg8
g5
sg9
S'terence.thorn@enron.com'
p555
sg11
I200000
sg12
g5
sg13
I73
sg14
g5
sg15
I41
sg16
I426629
sg17
F10403818.0
sg18
F0.0
sg19
g5
sg20
g5
sg21
I4817796
sg22
I0
sg23
I0
sg24
I365320
sg25
I222093
sg26
I911453
sg27
g28
(g32
S'\x8aV=k(\xa1g?'
p556
tp557
Rp558
sg38
I4452476
sg39
g28
(g32
S'|\xf7ah)\xd0\x10?'
p559
tp560
Rp561
ssS'FASTOW ANDREW S'
p562
(dp563
g3
g5
sg4
g5
sg6
I55921
sg7
I01
sg8
I-1386055
sg9
S'andrew.fastow@enron.com'
p564
sg11
I1736055
sg12
g5
sg13
g5
sg14
g5
sg15
g5
sg16
I277464
sg17
F5959193.0
sg18
g45
sg19
g5
sg20
I1300000
sg21
I1794412
sg22
g5
sg23
g5
sg24
I1794412
sg25
I440698
sg26
I2424083
sg27
g45
sg38
g5
sg39
g45
ssS'FOY JOE'
p565
(dp566
g3
I57
sg4
I181755
sg6
g5
sg7
I00
sg8
g5
sg9
S'tracy.foy@enron.com'
p567
sg11
g5
sg12
g5
sg13
I2
sg14
g5
sg15
I13
sg16
g5
sg17
F868623.0
sg18
F0.0
sg19
g5
sg20
g5
sg21
I343434
sg22
I0
sg23
I0
sg24
g5
sg25
g5
sg26
I181755
sg27
g28
(g32
S'\x85\xf7\x95\xc9\x99L\x81\xbf'
p568
tp569
Rp570
sg38
I343434
sg39
g28
(g32
S'\xc0\xb7\xe1,t\xdbV?'
p571
tp572
Rp573
ssS'CALGER CHRISTOPHER F'
p574
(dp575
g3
I2598
sg4
g5
sg6
I35818
sg7
I01
sg8
I-262500
sg9
S'christopher.calger@enron.com'
p576
sg11
I375304
sg12
g5
sg13
I2188
sg14
g5
sg15
I144
sg16
I486
sg17
F3255513.0
sg18
F0.1736111111111111
sg19
g5
sg20
I1250000
sg21
I126027
sg22
I199
sg23
I25
sg24
I126027
sg25
I240189
sg26
I1639297
sg27
g28
(g32
S'\x02\x91\xbc]\xcbY\x85?'
p577
tp578
Rp579
sg38
g5
sg39
g28
(g32
S'm\xcfH\x02O\x94n?'
p580
tp581
Rp582
ssS'RICE KENNETH D'
p583
(dp584
g3
I905
sg4
g5
sg6
I46950
sg7
I01
sg8
I-3504386
sg9
S'ken.rice@enron.com'
p585
sg11
I1617011
sg12
g5
sg13
I864
sg14
g5
sg15
I18
sg16
I174839
sg17
F45012400.0
sg18
F0.2222222222222222
sg19
g5
sg20
I1750000
sg21
I22542539
sg22
I42
sg23
I4
sg24
I2748364
sg25
I420636
sg26
I505050
sg27
g28
(g32
S'E\xc2\x9a\xb4"\xf3w?'
p586
tp587
Rp588
sg38
I19794175
sg39
g28
(g32
S'\x95\x95\xa7\x1a\xf5\xcbi?'
p589
tp590
Rp591
ssS'KAMINSKI WINCENTY J'
p592
(dp593
g3
I4607
sg4
g5
sg6
I83585
sg7
I00
sg8
g5
sg9
S'vince.kaminski@enron.com'
p594
sg11
I323466
sg12
g5
sg13
I583
sg14
g5
sg15
I14368
sg16
I4669
sg17
F3587969.0
sg18
F0.011901447661469933
sg19
g5
sg20
I400000
sg21
I976037
sg22
I41
sg23
I171
sg24
I126027
sg25
I275101
sg26
I1086821
sg27
g28
(g32
S'\x98\xfb+\xa9\x8b\xe5\x94\xbf'
p595
tp596
Rp597
sg38
I850010
sg39
g28
(g32
S'\x8f\xee\xf6\x92\xc6\x99`\xbf'
p598
tp599
Rp600
ssS'LOCKHART EUGENE E'
p601
(dp602
g3
g5
sg4
g5
sg6
g5
sg7
I00
sg8
g5
sg9
g5
sg11
g5
sg12
g5
sg13
g5
sg14
g5
sg15
g5
sg16
g5
sg17
I0
sg18
g45
sg19
g5
sg20
g5
sg21
g5
sg22
g5
sg23
g5
sg24
g5
sg25
g5
sg26
g5
sg27
g45
sg38
g5
sg39
g45
ssS'COX DAVID'
p603
(dp604
g3
I102
sg4
g5
sg6
I27861
sg7
I00
sg8
I-41250
sg9
S'chip.cox@enron.com'
p605
sg11
g5
sg12
g5
sg13
I71
sg14
g5
sg15
I33
sg16
I494
sg17
F2828865.0
sg18
F0.12121212121212122
sg19
g5
sg20
I800000
sg21
I495633
sg22
I0
sg23
I4
sg24
I378082
sg25
I314288
sg26
I1101393
sg27
g28
(g32
S'\xad\x8c\x81\x11\xd1\xd1P\xbf'
p606
tp607
Rp608
sg38
I117551
sg39
g28
(g32
S'\x04\xb6\xb2\x1e\xdb\\R\xbf'
p609
tp610
Rp611
ssS'OVERDYKE JR JERE C'
p612
(dp613
g3
g5
sg4
g5
sg6
I18834
sg7
I00
sg8
g5
sg9
S'jere.overdyke@enron.com'
p614
sg11
I135836
sg12
g5
sg13
g5
sg14
g5
sg15
g5
sg16
I176
sg17
F12918900.0
sg18
g45
sg19
g5
sg20
g5
sg21
I7307594
sg22
g5
sg23
g5
sg24
I2041016
sg25
I94941
sg26
I249787
sg27
g45
sg38
I5266578
sg39
g45
ssS'PEREIRA PAULO V. FERRAZ'
p615
(dp616
g3
g5
sg4
g5
sg6
I27942
sg7
I00
sg8
I-101250
sg9
g5
sg11
g5
sg12
g5
sg13
g5
sg14
g5
sg15
g5
sg16
g5
sg17
F27942.0
sg18
g45
sg19
I101250
sg20
g5
sg21
g5
sg22
g5
sg23
g5
sg24
g5
sg25
g5
sg26
I27942
sg27
g45
sg38
g5
sg39
g45
ssS'STABLER FRANK'
p617
(dp618
g3
g5
sg4
g5
sg6
I16514
sg7
I00
sg8
g5
sg9
S'frank.stabler@enron.com'
p619
sg11
g5
sg12
g5
sg13
g5
sg14
g5
sg15
g5
sg16
I356071
sg17
F2363323.0
sg18
g45
sg19
g5
sg20
I500000
sg21
I511734
sg22
g5
sg23
g5
sg24
I511734
sg25
I239502
sg26
I1112087
sg27
g45
sg38
g5
sg39
g45
ssS'SKILLING JEFFREY K'
p620
(dp621
g3
I3627
sg4
g5
sg6
I29336
sg7
I01
sg8
g5
sg9
S'jeff.skilling@enron.com'
p622
sg11
I1920000
sg12
g5
sg13
I2042
sg14
g5
sg15
I108
sg16
I22122
sg17
F60737646.0
sg18
F0.2777777777777778
sg19
g5
sg20
I5600000
sg21
I26093672
sg22
I88
sg23
I30
sg24
I6843672
sg25
I1111258
sg26
I8682716
sg27
g28
(g32
S'\xa6\xb3\xa1-\xfd\ru?'
p623
tp624
Rp625
sg38
I19250000
sg39
g28
(g32
S'\xe4\xb1\x0e8\xcd\xd6o?'
p626
tp627
Rp628
ssS'BLAKE JR. NORMAN P'
p629
(dp630
g3
g5
sg4
g5
sg6
I1279
sg7
I00
sg8
I-113784
sg9
g5
sg11
g5
sg12
g5
sg13
g5
sg14
g5
sg15
g5
sg16
g5
sg17
F1279.0
sg18
g45
sg19
I113784
sg20
g5
sg21
g5
sg22
g5
sg23
g5
sg24
g5
sg25
g5
sg26
I1279
sg27
g45
sg38
g5
sg39
g45
ssS'SHERRICK JEFFREY B'
p631
(dp632
g3
I613
sg4
g5
sg6
g5
sg7
I00
sg8
g5
sg9
S'jeffrey.sherrick@enron.com'
p633
sg11
g5
sg12
g5
sg13
I583
sg14
g5
sg15
I25
sg16
g5
sg17
F3258937.0
sg18
F0.72
sg19
g5
sg20
g5
sg21
I1832468
sg22
I39
sg23
I18
sg24
I405999
sg25
g5
sg26
g5
sg27
g28
(g32
S':\xc53\x84g\xaf\x8b?'
p634
tp635
Rp636
sg38
I1426469
sg39
g28
(g32
S'HF\xc4C\x9b\xf08?'
p637
tp638
Rp639
ssS'PRENTICE JAMES'
p640
(dp641
g3
g5
sg4
I564348
sg6
g5
sg7
I00
sg8
g5
sg9
S'james.prentice@enron.com'
p642
sg11
g5
sg12
g5
sg13
g5
sg14
g5
sg15
g5
sg16
g5
sg17
F2545619.0
sg18
g45
sg19
g5
sg20
g5
sg21
I1095040
sg22
g5
sg23
g5
sg24
I208809
sg25
g5
sg26
I564348
sg27
g45
sg38
I886231
sg39
g45
ssS'GRAY RODNEY'
p643
(dp644
g3
g5
sg4
I93585
sg6
g5
sg7
I00
sg8
g5
sg9
g5
sg11
I365625
sg12
g5
sg13
g5
sg14
g5
sg15
g5
sg16
I680833
sg17
F1153273.0
sg18
g45
sg19
g5
sg20
g5
sg21
g5
sg22
g5
sg23
g5
sg24
g5
sg25
I6615
sg26
I1146658
sg27
g45
sg38
g5
sg39
g45
ssS'THE TRAVEL AGENCY IN THE PARK'
p645
(dp646
g3
g5
sg4
g5
sg6
g5
sg7
I00
sg8
g5
sg9
g5
sg11
g5
sg12
g5
sg13
g5
sg14
g5
sg15
g5
sg16
I362096
sg17
F362096.0
sg18
g45
sg19
g5
sg20
g5
sg21
g5
sg22
g5
sg23
g5
sg24
g5
sg25
g5
sg26
I362096
sg27
g45
sg38
g5
sg39
g45
ssS'UMANOFF ADAM S'
p647
(dp648
g3
I111
sg4
g5
sg6
I53122
sg7
I00
sg8
g5
sg9
S'adam.umanoff@enron.com'
p649
sg11
g5
sg12
g5
sg13
I41
sg14
g5
sg15
I18
sg16
g5
sg17
F2207800.0
sg18
F0.0
sg19
g5
sg20
I788750
sg21
g5
sg22
I12
sg23
I0
sg24
g5
sg25
I288589
sg26
I1130461
sg27
g28
(g32
S' \xd1\x9e\x88@\xe2g?'
p650
tp651
Rp652
sg38
g5
sg39
g28
(g32
S'\xb7\x12-\x80\xf5R`?'
p653
tp654
Rp655
ssS'KEAN STEVEN J'
p656
(dp657
g3
I12754
sg4
g5
sg6
I41953
sg7
I00
sg8
g5
sg9
S'steven.kean@enron.com'
p658
sg11
I300000
sg12
g5
sg13
I3639
sg14
g5
sg15
I6759
sg16
I1231
sg17
F11327550.0
sg18
F0.05725699067909454
sg19
g5
sg20
I1000000
sg21
I6153642
sg22
I140
sg23
I387
sg24
I4131594
sg25
I404338
sg26
I1747522
sg27
g28
(g32
S'\xda\xb9\x19\xed`zj\xbf'
p659
tp660
Rp661
sg38
I2022048
sg39
g28
(g32
S"'\xdbc\x82\xdaDN\xbf"
p662
tp663
Rp664
ssS'FOWLER PEGGY'
p665
(dp666
g3
I517
sg4
g5
sg6
g5
sg7
I00
sg8
g5
sg9
S'kulvinder.fowler@enron.com'
p667
sg11
g5
sg12
g5
sg13
I10
sg14
g5
sg15
I36
sg16
g5
sg17
F3209326.0
sg18
F0.0
sg19
g5
sg20
g5
sg21
I1884748
sg22
I0
sg23
I0
sg24
I560170
sg25
g5
sg26
g5
sg27
g28
(g32
S'\x12D\xeb\xf6\x06\x9ez\xbf'
p668
tp669
Rp670
sg38
I1324578
sg39
g28
(g32
S'\x96;\xcb\xc1^\xa6i\xbf'
p671
tp672
Rp673
ssS'WASAFF GEORGE'
p674
(dp675
g3
I400
sg4
I831299
sg6
g5
sg7
I00
sg8
I-583325
sg9
S'george.wasaff@enron.com'
p676
sg11
I200000
sg12
g5
sg13
I337
sg14
g5
sg15
I30
sg16
I1425
sg17
F5344078.0
sg18
F0.23333333333333334
sg19
g5
sg20
I325000
sg21
I2056427
sg22
I22
sg23
I7
sg24
I388167
sg25
I259996
sg26
I1034395
sg27
g28
(g32
S'|)Z\x9d\x8f\x12S\xbf'
p677
tp678
Rp679
sg38
I1668260
sg39
g28
(g32
S'\xee:h?\x01i2\xbf'
p680
tp681
Rp682
ssS'WHITE JR THOMAS E'
p683
(dp684
g3
g5
sg4
g5
sg6
I81353
sg7
I00
sg8
g5
sg9
S'thomas.white@enron.com'
p685
sg11
g5
sg12
g5
sg13
g5
sg14
g5
sg15
g5
sg16
I1085463
sg17
F19143074.0
sg18
g45
sg19
g5
sg20
I450000
sg21
I15144123
sg22
g5
sg23
g5
sg24
I13847074
sg25
I317543
sg26
I1934359
sg27
g45
sg38
I1297049
sg39
g45
ssS'CHRISTODOULOU DIOMEDES'
p686
(dp687
g3
g5
sg4
g5
sg6
g5
sg7
I00
sg8
g5
sg9
S'diomedes.christodoulou@enron.com'
p688
sg11
g5
sg12
g5
sg13
g5
sg14
g5
sg15
g5
sg16
g5
sg17
F11205040.0
sg18
g45
sg19
g5
sg20
g5
sg21
I6077885
sg22
g5
sg23
g5
sg24
I950730
sg25
g5
sg26
g5
sg27
g45
sg38
I5127155
sg39
g45
ssS'ALLEN PHILLIP K'
p689
(dp690
g3
I2902
sg4
I2869717
sg6
I13868
sg7
I00
sg8
I-3081055
sg9
S'phillip.allen@enron.com'
p691
sg11
I304805
sg12
I-126027
sg13
I1407
sg14
g5
sg15
I2195
sg16
I152
sg17
F12320479.0
sg18
F0.029612756264236904
sg19
g5
sg20
I4175000
sg21
I1729541
sg22
I47
sg23
I65
sg24
I126027
sg25
I201955
sg26
I4484442
sg27
g28
(g32
S'\x07\xe6\xf3_\x8b\x04\x7f\xbf'
p692
tp693
Rp694
sg38
I1729541
sg39
g28
(g32
S'HF\xc4C\x9b\xf08?'
p695
tp696
Rp697
ssS'SHARP VICTORIA T'
p698
(dp699
g3
I3136
sg4
I187469
sg6
I116337
sg7
I00
sg8
g5
sg9
S'vicki.sharp@enron.com'
p700
sg11
I422158
sg12
g5
sg13
I2477
sg14
g5
sg15
I136
sg16
I2401
sg17
F3199866.0
sg18
F0.04411764705882353
sg19
g5
sg20
I600000
sg21
I494136
sg22
I24
sg23
I6
sg24
I213063
sg25
I248146
sg26
I1576511
sg27
g28
(g32
S'\xad\xfa\xf2,\xae\xc3O\xbf'
p701
tp702
Rp703
sg38
I281073
sg39
g28
(g32
S'N\x18\xd2\xfc\xc1\x8eD\xbf'
p704
tp705
Rp706
ssS'JAEDICKE ROBERT'
p707
(dp708
g3
g5
sg4
g5
sg6
g5
sg7
I00
sg8
I-25000
sg9
g5
sg11
g5
sg12
I-44093
sg13
g5
sg14
g5
sg15
g5
sg16
g5
sg17
F947250.0
sg18
g45
sg19
I108750
sg20
g5
sg21
I431750
sg22
g5
sg23
g5
sg24
I44093
sg25
g5
sg26
I83750
sg27
g45
sg38
I431750
sg39
g45
ssS'WINOKUR JR. HERBERT S'
p709
(dp710
g3
g5
sg4
g5
sg6
I1413
sg7
I00
sg8
I-25000
sg9
g5
sg11
g5
sg12
g5
sg13
g5
sg14
g5
sg15
g5
sg16
g5
sg17
F84992.0
sg18
g45
sg19
I108579
sg20
g5
sg21
g5
sg22
g5
sg23
g5
sg24
g5
sg25
g5
sg26
I84992
sg27
g45
sg38
g5
sg39
g45
ssS'BROWN MICHAEL'
p711
(dp712
g3
I1486
sg4
g5
sg6
I49288
sg7
I00
sg8
g5
sg9
S'michael.brown@enron.com'
p713
sg11
g5
sg12
g5
sg13
I761
sg14
g5
sg15
I41
sg16
g5
sg17
F49288.0
sg18
F0.024390243902439025
sg19
g5
sg20
g5
sg21
g5
sg22
I13
sg23
I1
sg24
g5
sg25
g5
sg26
I49288
sg27
g28
(g32
S'TT/W\xdaV\\\xbf'
p714
tp715
Rp716
sg38
g5
sg39
g28
(g32
S'\\\xe2x\x0e\xe1*6\xbf'
p717
tp718
Rp719
ssS'MCCLELLAN GEORGE'
p720
(dp721
g3
I1744
sg4
g5
sg6
I228763
sg7
I00
sg8
I-125000
sg9
S'george.mcclellan@enron.com'
p722
sg11
g5
sg12
g5
sg13
I1469
sg14
g5
sg15
I49
sg16
I51587
sg17
F3936802.0
sg18
F0.0
sg19
g5
sg20
I900000
sg21
I947861
sg22
I52
sg23
I0
sg24
I441096
sg25
I263413
sg26
I1318763
sg27
g28
(g32
S'\xb8\xf3s@\x16\xecc\xbf'
p723
tp724
Rp725
sg38
I506765
sg39
g28
(g32
S'z\xf7ah)\xd0\x10?'
p726
tp727
Rp728
ssS'HUGHES JAMES A'
p729
(dp730
g3
I719
sg4
g5
sg6
g5
sg7
I00
sg8
g5
sg9
S'james.hughes@enron.com'
p731
sg11
g5
sg12
g5
sg13
I589
sg14
g5
sg15
I34
sg16
g5
sg17
F1873360.0
sg18
F0.14705882352941177
sg19
g5
sg20
g5
sg21
I1118394
sg22
I35
sg23
I5
sg24
I363428
sg25
g5
sg26
g5
sg27
g28
(g32
S"'%\x9da\xd2\x85x?"
p732
tp733
Rp734
sg38
I754966
sg39
g28
(g32
S'|\xf7ah)\xd0\x10?'
p735
tp736
Rp737
ssS'REYNOLDS LAWRENCE'
p738
(dp739
g3
g5
sg4
I51365
sg6
I8409
sg7
I00
sg8
I-200000
sg9
g5
sg11
I156250
sg12
I-140264
sg13
g5
sg14
g5
sg15
g5
sg16
I202052
sg17
F8953437.0
sg18
g45
sg19
g5
sg20
I100000
sg21
I4221891
sg22
g5
sg23
g5
sg24
I201483
sg25
I76399
sg26
I394475
sg27
g45
sg38
I4160672
sg39
g45
ssS'PICKERING MARK R'
p740
(dp741
g3
I898
sg4
g5
sg6
I31653
sg7
I00
sg8
g5
sg9
S'mark.pickering@enron.com'
p742
sg11
g5
sg12
g5
sg13
I728
sg14
I400000
sg15
I67
sg16
g5
sg17
F2399323.0
sg18
F0.0
sg19
g5
sg20
I300000
sg21
I28798
sg22
I7
sg23
I0
sg24
g5
sg25
I655037
sg26
I1386690
sg27
g28
(g32
S'\xd2\xdf\x00\xcc\x80m\x87\xbf'
p743
tp744
Rp745
sg38
I28798
sg39
g28
(g32
S'\xf6\xb3\x172\xac\x8dP\xbf'
p746
tp747
Rp748
ssS'BHATNAGAR SANJAY'
p749
(dp750
g3
I523
sg4
g5
sg6
g5
sg7
I00
sg8
g5
sg9
S'sanjay.bhatnagar@enron.com'
p751
sg11
g5
sg12
I15456290
sg13
I463
sg14
g5
sg15
I29
sg16
I137864
sg17
F18060780.0
sg18
F0.034482758620689655
sg19
I137864
sg20
g5
sS'total_stock_value'
p752
S'NaN'
p753
sg22
I0
sg23
I1
sg24
I-2604490
sg25
g5
sg26
I15456290
sg27
g28
(g32
S'\xf9c\x05\x84S6\x82?'
p754
tp755
Rp756
sg38
I2604490
sg39
g28
(g32
S'X\xf1h\x96\xc3\x0e\x1a\xbf'
p757
tp758
Rp759
ssS'CARTER REBECCA C'
p760
(dp761
g3
I312
sg4
g5
sg6
g5
sg7
I00
sg8
I-159792
sg9
S'rebecca.carter@enron.com'
p762
sg11
I75000
sg12
I-307301
sg13
I196
sg14
g5
sg15
I15
sg16
I540
sg17
F1039366.0
sg18
F0.4666666666666667
sg19
g5
sg20
I300000
sg21
g5
sg22
I29
sg23
I7
sg24
I307301
sg25
I261809
sg26
I477557
sg27
g28
(g32
S'\x13\xfeS@\x87d[\xbf'
p763
tp764
Rp765
sg38
g5
sg39
g28
(g32
S'HF\xc4C\x9b\xf08?'
p766
tp767
Rp768
ssS'BUCHANAN HAROLD G'
p769
(dp770
g3
I1088
sg4
g5
sg6
I600
sg7
I00
sg8
g5
sg9
S'john.buchanan@enron.com'
p771
sg11
I304805
sg12
g5
sg13
I23
sg14
g5
sg15
I125
sg16
I1215
sg17
F3642623.0
sg18
F0.0
sg19
g5
sg20
I500000
sg21
I1014505
sg22
I0
sg23
I0
sg24
I189041
sg25
I248017
sg26
I1054637
sg27
g28
(g32
S'\x96\xa5\x1f}\xb8\x84\x81\xbf'
p772
tp773
Rp774
sg38
I825464
sg39
g28
(g32
S't\xb15\xc4u\xfdf\xbf'
p775
tp776
Rp777
ssS'YEAP SOON'
p778
(dp779
g3
g5
sg4
g5
sg6
I55097
sg7
I00
sg8
g5
sg9
g5
sg11
g5
sg12
g5
sg13
g5
sg14
g5
sg15
g5
sg16
g5
sg17
F440613.0
sg18
g45
sg19
g5
sg20
g5
sg21
I192758
sg22
g5
sg23
g5
sg24
g5
sg25
g5
sg26
I55097
sg27
g45
sg38
I192758
sg39
g45
ssS'MURRAY JULIA H'
p780
(dp781
g3
I2192
sg4
g5
sg6
I57580
sg7
I00
sg8
g5
sg9
S'julia.murray@enron.com'
p782
sg11
I125000
sg12
g5
sg13
I395
sg14
g5
sg15
I45
sg16
I330
sg17
F2439417.0
sg18
F0.044444444444444446
sg19
g5
sg20
I400000
sg21
I597461
sg22
I11
sg23
I2
sg24
I196983
sg25
I229284
sg26
I812194
sg27
g28
(g32
S'T?:Y\x03N\x81\xbf'
p783
tp784
Rp785
sg38
I400478
sg39
g28
(g32
S'.{\xdc\x803)x\xbf'
p786
tp787
Rp788
ssS'GARLAND C KEVIN'
p789
(dp790
g3
I209
sg4
g5
sg6
I48405
sg7
I00
sg8
g5
sg9
S'kevin.garland@enron.com'
p791
sg11
I375304
sg12
g5
sg13
I178
sg14
g5
sg15
I44
sg16
I60814
sg17
F4180814.0
sg18
F0.6136363636363636
sg19
g5
sg20
I850000
sg21
I896153
sg22
I10
sg23
I27
sg24
I259907
sg25
I231946
sg26
I1566469
sg27
g28
(g32
S'&\xe3\x04\x00V\xc7\x83?'
p792
tp793
Rp794
sg38
I636246
sg39
g28
(g32
S'\xc7\x80e\xf6\xd7yH?'
p795
tp796
Rp797
ssS'DODSON KEITH'
p798
(dp799
g3
I176
sg4
g5
sg6
I28164
sg7
I00
sg8
g5
sg9
S'keith.dodson@enron.com'
p800
sg11
g5
sg12
g5
sg13
I114
sg14
g5
sg15
I14
sg16
I774
sg17
F610944.0
sg18
F0.21428571428571427
sg19
g5
sg20
I70000
sg21
g5
sg22
I10
sg23
I3
sg24
g5
sg25
I221003
sg26
I319941
sg27
g28
(g32
S'\x18>\xbd\x18\xd9Nx?'
p801
tp802
Rp803
sg38
g5
sg39
g28
(g32
S'\xdd\xe6!\xbe\xc9\xb4`\xbf'
p804
tp805
Rp806
ssS'YEAGER F SCOTT'
p807
(dp808
g3
g5
sg4
g5
sg6
I53947
sg7
I01
sg8
g5
sg9
S'scott.yeager@enron.com'
p809
sg11
g5
sg12
g5
sg13
g5
sg14
g5
sg15
g5
sg16
I147950
sg17
F20712013.0
sg18
g45
sg19
g5
sg20
g5
sg21
I11884758
sg22
g5
sg23
g5
sg24
I3576206
sg25
I158403
sg26
I360300
sg27
g45
sg38
I8308552
sg39
g45
ssS'HIRKO JOSEPH'
p810
(dp811
g3
g5
sg4
I10259
sg6
I77978
sg7
I01
sg8
g5
sg9
S'joe.hirko@enron.com'
p812
sg11
g5
sg12
g5
sg13
g5
sg14
g5
sg15
g5
sg16
I2856
sg17
F61623221.0
sg18
g45
sg19
g5
sg20
g5
sg21
I30766064
sg22
g5
sg23
g5
sg24
g5
sg25
g5
sg26
I91093
sg27
g45
sg38
I30766064
sg39
g45
ssS'DIETRICH JANET R'
p813
(dp814
g3
I2572
sg4
g5
sg6
I3475
sg7
I00
sg8
g5
sg9
S'janet.dietrich@enron.com'
p815
sg11
I556416
sg12
g5
sg13
I1902
sg14
g5
sg15
I63
sg16
I473
sg17
F5675670.0
sg18
F0.2222222222222222
sg19
g5
sg20
I600000
sg21
I1865087
sg22
I305
sg23
I14
sg24
I315068
sg25
I250100
sg26
I1410464
sg27
g28
(g32
S'\x06\x05\xbf\xc3\x7f\x86g?'
p816
tp817
Rp818
sg38
I1550019
sg39
g28
(g32
S'\xd40\xf9\x1d\xb3#`\xbf'
p819
tp820
Rp821
ssS'DERRICK JR. JAMES V'
p822
(dp823
g3
I2181
sg4
g5
sg6
I51124
sg7
I00
sg8
I-1284000
sg9
S'james.derrick@enron.com'
p824
sg11
I484000
sg12
I-1787380
sg13
I1401
sg14
g5
sg15
I909
sg16
I7482
sg17
F19507182.0
sg18
F0.022002200220022004
sg19
g5
sg20
I800000
sg21
I8831913
sg22
I64
sg23
I20
sg24
I1787380
sg25
I492375
sg26
I550981
sg27
g28
(g32
S'\x81\xd7Uk$c\x82\xbf'
p825
tp826
Rp827
sg38
I8831913
sg39
g28
(g32
S'V\xca\x90\xb1\xff\x8fv\xbf'
p828
tp829
Rp830
ssS'FREVERT MARK A'
p831
(dp832
g3
I3275
sg4
I6426990
sg6
I86987
sg7
I00
sg8
I-3367011
sg9
S'mark.frevert@enron.com'
p833
sg11
I1617011
sg12
g5
sg13
I2979
sg14
I2000000
sg15
I21
sg16
I7427621
sg17
F45369165.0
sg18
F0.2857142857142857
sg19
g5
sg20
I2000000
sg21
I14622185
sg22
I242
sg23
I6
sg24
I4188667
sg25
I1060932
sg26
I17252530
sg27
g28
(g32
S'\xdeL\xa6Z\x13\xd2.?'
p834
tp835
Rp836
sg38
I10433518
sg39
g28
(g32
S"g'\xacO\xe3\x95~\xbf"
p837
tp838
Rp839
ssS'PAI LOU L'
p840
(dp841
g3
g5
sg4
g5
sg6
I32047
sg7
I00
sg8
g5
sg9
S'lou.pai@enron.com'
p842
sg11
g5
sg12
g5
sg13
g5
sg14
g5
sg15
g5
sg16
I1829457
sg17
F43567359.0
sg18
g45
sg19
g5
sg20
I1000000
sg21
I23817930
sg22
g5
sg23
g5
sg24
I8453763
sg25
I261879
sg26
I3123383
sg27
g45
sg38
I15364167
sg39
g45
ssS'HAYSLETT RODERICK J'
p843
(dp844
g3
I2649
sg4
g5
sg6
g5
sg7
I00
sg8
g5
sg9
S'rod.hayslett@enron.com'
p845
sg11
g5
sg12
g5
sg13
I571
sg14
g5
sg15
I1061
sg16
g5
sg17
F346663.0
sg18
F0.03581526861451461
sg19
g5
sg20
g5
sg21
I346663
sg22
I35
sg23
I38
sg24
I346663
sg25
g5
sg26
g5
sg27
g28
(g32
S'2\xeb\x1e\x02\xa1t\x91\xbf'
p846
tp847
Rp848
sg38
g5
sg39
g28
(g32
S'C\xac\xd8VD9i\xbf'
p849
tp850
Rp851
ssS'BAY FRANKLIN R'
p852
(dp853
g3
g5
sg4
I260455
sg6
I129142
sg7
I00
sg8
I-201641
sg9
S'frank.bay@enron.com'
p854
sg11
g5
sg12
I-82782
sg13
g5
sg14
g5
sg15
g5
sg16
I69
sg17
F1530381.0
sg18
g45
sg19
g5
sg20
I400000
sg21
I63014
sg22
g5
sg23
g5
sg24
I145796
sg25
I239671
sg26
I827696
sg27
g45
sg38
g5
sg39
g45
ssS'MCCARTY DANNY J'
p855
(dp856
g3
I1433
sg4
g5
sg6
g5
sg7
I00
sg8
g5
sg9
S'danny.mccarty@enron.com'
p857
sg11
g5
sg12
g5
sg13
I508
sg14
g5
sg15
I215
sg16
g5
sg17
F1423306.0
sg18
F0.009302325581395349
sg19
g5
sg20
g5
sg21
I758931
sg22
I25
sg23
I2
sg24
I94556
sg25
g5
sg26
g5
sg27
g28
(g32
S'\x7f\xf8\xa7\xdb\xfb\x9f\x82\xbf'
p858
tp859
Rp860
sg38
I664375
sg39
g28
(g32
S'\x85\xce\xc3\xfa>\xb7f\xbf'
p861
tp862
Rp863
ssS'FUGH JOHN L'
p864
(dp865
g3
g5
sg4
I50591
sg6
g5
sg7
I00
sg8
g5
sg9
g5
sg11
g5
sg12
g5
sg13
g5
sg14
g5
sg15
g5
sg16
g5
sg17
F403347.0
sg18
g45
sg19
g5
sg20
g5
sg21
I176378
sg22
g5
sg23
g5
sg24
g5
sg25
g5
sg26
I50591
sg27
g45
sg38
I176378
sg39
g45
ssS'SCRIMSHAW MATTHEW'
p866
(dp867
g3
g5
sg4
g5
sg6
g5
sg7
I00
sg8
g5
sg9
S'matthew.scrimshaw@enron.com'
p868
sg11
g5
sg12
g5
sg13
g5
sg14
g5
sg15
g5
sg16
g5
sg17
F1519114.0
sg18
g45
sg19
g5
sg20
g5
sg21
I759557
sg22
g5
sg23
g5
sg24
g5
sg25
g5
sg26
g5
sg27
g45
sg38
I759557
sg39
g45
ssS'KOENIG MARK E'
p869
(dp870
g3
I2374
sg4
g5
sg6
I127017
sg7
I01
sg8
g5
sg9
S'mark.koenig@enron.com'
p871
sg11
I300000
sg12
g5
sg13
I2271
sg14
g5
sg15
I61
sg16
I150458
sg17
F5189159.0
sg18
F0.2459016393442623
sg19
g5
sg20
I700000
sg21
I1920055
sg22
I53
sg23
I15
sg24
I1248318
sg25
I309946
sg26
I1587421
sg27
g28
(g32
S'\x8eU(\xd8\xdf\xd0m?'
p872
tp873
Rp874
sg38
I671737
sg39
g28
(g32
S'\xec\x1b\xee\x91\x8e\xd4X\xbf'
p875
tp876
Rp877
ssS'SAVAGE FRANK'
p878
(dp879
g3
g5
sg4
g5
sg6
g5
sg7
I00
sg8
I-121284
sg9
g5
sg11
g5
sg12
g5
sg13
g5
sg14
g5
sg15
g5
sg16
g5
sg17
F3750.0
sg18
g45
sg19
I125034
sg20
g5
sg21
g5
sg22
g5
sg23
g5
sg24
g5
sg25
g5
sg26
I3750
sg27
g45
sg38
g5
sg39
g45
ssS'IZZO LAWRENCE L'
p880
(dp881
g3
I496
sg4
g5
sg6
I28093
sg7
I00
sg8
g5
sg9
S'larry.izzo@enron.com'
p882
sg11
I312500
sg12
g5
sg13
I437
sg14
g5
sg15
I19
sg16
I1553729
sg17
F10050022.0
sg18
F0.2631578947368421
sg19
g5
sg20
g5
sg21
I5819980
sg22
I28
sg23
I5
sg24
I3654808
sg25
I85274
sg26
I1979596
sg27
g28
(g32
S'\x0b\xa7\x96yK\x17|?'
p883
tp884
Rp885
sg38
I2165172
sg39
g28
(g32
S'm\x83\xeb\xec\xb1\xc4S\xbf'
p886
tp887
Rp888
ssS'TILNEY ELIZABETH A'
p889
(dp890
g3
I460
sg4
g5
sg6
g5
sg7
I00
sg8
I-575000
sg9
S'elizabeth.tilney@enron.com'
p891
sg11
I275000
sg12
g5
sg13
I379
sg14
g5
sg15
I19
sg16
I152055
sg17
F2706023.0
sg18
F0.5789473684210527
sg19
g5
sg20
I300000
sg21
I1168042
sg22
I10
sg23
I11
sg24
I576792
sg25
I247338
sg26
I399393
sg27
g28
(g32
S'n\xb5S\xe75\x98i?'
p892
tp893
Rp894
sg38
I591250
sg39
g28
(g32
S'\x8bx$L\xc9\x11k?'
p895
tp896
Rp897
ssS'MARTIN AMANDA K'
p898
(dp899
g3
I1522
sg4
I85430
sg6
I8211
sg7
I00
sg8
g5
sg9
S'a..martin@enron.com'
p900
sg11
I5145434
sg12
g5
sg13
I477
sg14
g5
sg15
I230
sg16
I2818454
sg17
F12897115.0
sg18
F0.0
sg19
g5
sg20
g5
sg21
I2070306
sg22
I8
sg23
I0
sg24
g5
sg25
I349487
sg26
I8407016
sg27
g28
(g32
S'\x89<\xc3@\x7f\x86\x83\xbf'
p901
tp902
Rp903
sg38
I2070306
sg39
g28
(g32
S'\xddR\xab\x16,\xa7S\xbf'
p904
tp905
Rp906
ssS'BUY RICHARD B'
p907
(dp908
g3
I3523
sg4
I649584
sg6
g5
sg7
I00
sg8
I-694862
sg9
S'rick.buy@enron.com'
p909
sg11
I769862
sg12
g5
sg13
I2333
sg14
g5
sg15
I1053
sg16
I400572
sg17
F9573531.0
sg18
F0.06742640075973409
sg19
g5
sg20
I900000
sg21
I3444470
sg22
I156
sg23
I71
sg24
I901657
sg25
I330546
sg26
I2355702
sg27
g28
(g32
S'\xa8om\x9d&\x80\x81\xbf'
p910
tp911
Rp912
sg38
I2542813
sg39
g28
(g32
S'\x86\x08\xa0\xd4d[Z\xbf'
p913
tp914
Rp915
ssS'GRAMM WENDY L'
p916
(dp917
g3
g5
sg4
g5
sg6
g5
sg7
I00
sg8
g5
sg9
g5
sg11
g5
sg12
g5
sg13
g5
sg14
g5
sg15
g5
sg16
g5
sg17
F119292.0
sg18
g45
sg19
I119292
sg20
g5
sg21
g5
sg22
g5
sg23
g5
sg24
g5
sg25
g5
sg26
I119292
sg27
g45
sg38
g5
sg39
g45
ssS'CAUSEY RICHARD A'
p918
(dp919
g3
I1892
sg4
g5
sg6
I30674
sg7
I01
sg8
I-235000
sg9
S'richard.causey@enron.com'
p920
sg11
I350000
sg12
g5
sg13
I1585
sg14
g5
sg15
I49
sg16
I307895
sg17
F5786010.0
sg18
F0.24489795918367346
sg19
g5
sg20
I1000000
sg21
I2502063
sg22
I58
sg23
I12
sg24
I2502063
sg25
I415189
sg26
I1868758
sg27
g28
(g32
S'<\xaa\xaa\xe6\xe7\xf0d?'
p921
tp922
Rp923
sg38
g5
sg39
g28
(g32
S'\x10\xc7!\xa1I\xb1&?'
p924
tp925
Rp926
ssS'TAYLOR MITCHELL S'
p927
(dp928
g3
I533
sg4
I227449
sg6
g5
sg7
I00
sg8
g5
sg9
S'mitchell.taylor@enron.com'
p929
sg11
g5
sg12
g5
sg13
I300
sg14
g5
sg15
I29
sg16
g5
sg17
F8884175.0
sg18
F0.0
sg19
g5
sg20
I600000
sg21
I3745048
sg22
I0
sg23
I0
sg24
I563798
sg25
I265214
sg26
I1092663
sg27
g28
(g32
S'2\xa9Q\x1d\xb7\xc6}?'
p930
tp931
Rp932
sg38
I3181250
sg39
g28
(g32
S'M\xc9ueI\x01e\xbf'
p933
tp934
Rp935
ssS'DONAHUE JR JEFFREY M'
p936
(dp937
g3
I865
sg4
g5
sg6
I96268
sg7
I00
sg8
I-300000
sg9
S'jeff.donahue@enron.com'
p938
sg11
g5
sg12
g5
sg13
I772
sg14
g5
sg15
I22
sg16
I891
sg17
F3801269.0
sg18
F0.5
sg19
g5
sg20
I800000
sg21
I1080988
sg22
I188
sg23
I11
sg24
I315068
sg25
I278601
sg26
I875760
sg27
g28
(g32
S'Hn\xcc\xc0\xe4\x7f:?'
p939
tp940
Rp941
sg38
I765920
sg39
g28
(g32
S'HF\xc4C\x9b\xf08?'
p942
tp943
Rp944
ssS'GLISAN JR BEN F'
p945
(dp946
g3
I873
sg4
g5
sg6
I125978
sg7
I01
sg8
g5
sg9
S'ben.glisan@enron.com'
p947
sg11
I71023
sg12
g5
sg13
I874
sg14
g5
sg15
I16
sg16
I200308
sg17
F3310533.0
sg18
F0.375
sg19
g5
sg20
I600000
sg21
I778546
sg22
I52
sg23
I6
sg24
I393818
sg25
I274975
sg26
I1272284
sg27
g28
(g32
S'\x1b\xe8t\x11\x1f\x9e\x8c?'
p948
tp949
Rp950
sg38
I384728
sg39
g28
(g32
S'\xf8\xf9\xe2"\'Ew?'
p951
tp952
Rp953
ss.