(lp0
S'poi'
p1
aS'email_subject_scaled'
p2
aS'to_poi_ratio_scaled'
p3
aS'combined_scaled'
p4
aS'from_messages_scaled'
p5
aS'expenses_scaled'
p6
aS'deferred_income_scaled'
p7
aS'other_scaled'
p8
aS'restricted_stock_scaled'
p9
aS'long_term_incentive_scaled'
p10
aS'deferral_payments_scaled'
p11
aS'email_body_scaled'
p12
aS'restricted_stock_deferred_scaled'
p13
a.